(lp0
(S'cppflags'
p1
ccopy_reg
_reconstructor
p2
(cino.utils
SpaceList
p3
c__builtin__
list
p4
(lp5
S'-mmcu=atmega328p'
p6
aS'-DF_CPU=16000000L'
p7
aS'-DARDUINO=101'
p8
aS'-I/usr/share/arduino/hardware/arduino/cores/arduino'
p9
aS'-ffunction-sections'
p10
aS'-fdata-sections'
p11
aS'-g'
p12
aS'-Os'
p13
aS'-w'
p14
aS'-I/usr/share/arduino/hardware/arduino/variants/standard'
p15
aS'-Ilib/TSL2561'
p16
aS'-Ilib/NewPing'
p17
aS'-I/usr/share/arduino/libraries/Wire'
p18
aS'-I/usr/share/arduino/libraries/Wire/utility'
p19
aS'-I/usr/share/arduino/hardware/arduino/cores/arduino'
p20
atp21
Rp22
tp23
a(S'cxx'
p24
S'/usr/bin/avr-g++'
p25
tp26
a(S'build_dir'
p27
S'.build/uno'
p28
tp29
a(S'avrdude'
p30
S'/usr/share/arduino/hardware/tools/avrdude'
p31
tp32
a(S'ar'
p33
S'/usr/bin/avr-ar'
p34
tp35
a(S'names'
p36
(dp37
S'cpp'
p38
S'%s.cpp'
p39
sS'obj'
p40
S'%s.o'
p41
sS'deps'
p42
S'%s.d'
p43
sS'lib'
p44
S'lib%s.a'
p45
stp46
a(S'ldflags'
p47
g2
(g3
g4
(lp48
g6
aS'-Wl,-Os'
p49
aS'-Wl,--gc-sections'
p50
atp51
Rp52
tp53
a(S'arduino_lib_version'
p54
g2
(cino.environment
Version
p55
c__builtin__
tuple
p56
(I1
I0
I1
tp57
tp58
Rp59
tp60
a(S'objcopy'
p61
S'/usr/bin/avr-objcopy'
p62
tp63
a(S'board_models'
p64
cino.environment
BoardModels
p65
((lp66
(lp67
S'uno'
p68
a(dp69
S'bootloader'
p70
(dp71
S'extended_fuses'
p72
S'0x05'
p73
sS'high_fuses'
p74
S'0xde'
p75
sS'low_fuses'
p76
S'0xff'
p77
sS'lock_bits'
p78
S'0x0F'
p79
sS'file'
p80
S'optiboot_atmega328.hex'
p81
sS'path'
p82
S'optiboot'
p83
sS'unlock_bits'
p84
S'0x3F'
p85
ssS'upload'
p86
(dp87
S'speed'
p88
S'115200'
p89
sS'maximum_size'
p90
S'32256'
p91
sS'protocol'
p92
S'arduino'
p93
ssS'build'
p94
(dp95
S'core'
p96
S'arduino'
p97
sS'mcu'
p98
S'atmega328p'
p99
sS'f_cpu'
p100
S'16000000L'
p101
sS'variant'
p102
S'standard'
p103
ssS'name'
p104
S'Arduino Uno'
p105
sS'_coredir'
p106
S'/usr/share/arduino/hardware/arduino'
p107
saa(lp108
S'atmega328'
p109
a(dp110
S'bootloader'
p111
(dp112
S'extended_fuses'
p113
S'0x05'
p114
sS'high_fuses'
p115
S'0xDA'
p116
sS'low_fuses'
p117
S'0xFF'
p118
sS'lock_bits'
p119
S'0x0F'
p120
sS'file'
p121
S'ATmegaBOOT_168_atmega328.hex'
p122
sS'path'
p123
S'atmega'
p124
sS'unlock_bits'
p125
S'0x3F'
p126
ssS'upload'
p127
(dp128
S'speed'
p129
S'57600'
p130
sS'maximum_size'
p131
S'30720'
p132
sS'protocol'
p133
S'arduino'
p134
ssS'build'
p135
(dp136
S'core'
p137
S'arduino'
p138
sS'mcu'
p139
S'atmega328p'
p140
sS'f_cpu'
p141
S'16000000L'
p142
sS'variant'
p143
S'standard'
p144
ssS'name'
p145
S'Arduino Duemilanove w/ ATmega328'
p146
sg106
S'/usr/share/arduino/hardware/arduino'
p147
saa(lp148
S'diecimila'
p149
a(dp150
S'bootloader'
p151
(dp152
S'extended_fuses'
p153
S'0x00'
p154
sS'high_fuses'
p155
S'0xdd'
p156
sS'low_fuses'
p157
S'0xff'
p158
sS'lock_bits'
p159
S'0x0F'
p160
sS'file'
p161
S'ATmegaBOOT_168_diecimila.hex'
p162
sS'path'
p163
S'atmega'
p164
sS'unlock_bits'
p165
S'0x3F'
p166
ssS'upload'
p167
(dp168
S'speed'
p169
S'19200'
p170
sS'maximum_size'
p171
S'14336'
p172
sS'protocol'
p173
S'arduino'
p174
ssS'build'
p175
(dp176
S'core'
p177
S'arduino'
p178
sS'mcu'
p179
S'atmega168'
p180
sS'f_cpu'
p181
S'16000000L'
p182
sS'variant'
p183
S'standard'
p184
ssS'name'
p185
S'Arduino Diecimila or Duemilanove w/ ATmega168'
p186
sg106
S'/usr/share/arduino/hardware/arduino'
p187
saa(lp188
S'nano328'
p189
a(dp190
S'bootloader'
p191
(dp192
S'extended_fuses'
p193
S'0x05'
p194
sS'high_fuses'
p195
S'0xDA'
p196
sS'low_fuses'
p197
S'0xFF'
p198
sS'lock_bits'
p199
S'0x0F'
p200
sS'file'
p201
S'ATmegaBOOT_168_atmega328.hex'
p202
sS'path'
p203
S'atmega'
p204
sS'unlock_bits'
p205
S'0x3F'
p206
ssS'upload'
p207
(dp208
S'speed'
p209
S'57600'
p210
sS'maximum_size'
p211
S'30720'
p212
sS'protocol'
p213
S'arduino'
p214
ssS'build'
p215
(dp216
S'core'
p217
S'arduino'
p218
sS'mcu'
p219
S'atmega328p'
p220
sS'f_cpu'
p221
S'16000000L'
p222
sS'variant'
p223
S'eightanaloginputs'
p224
ssS'name'
p225
S'Arduino Nano w/ ATmega328'
p226
sg106
S'/usr/share/arduino/hardware/arduino'
p227
saa(lp228
S'nano'
p229
a(dp230
S'bootloader'
p231
(dp232
S'extended_fuses'
p233
S'0x00'
p234
sS'high_fuses'
p235
S'0xdd'
p236
sS'low_fuses'
p237
S'0xff'
p238
sS'lock_bits'
p239
S'0x0F'
p240
sS'file'
p241
S'ATmegaBOOT_168_diecimila.hex'
p242
sS'path'
p243
S'atmega'
p244
sS'unlock_bits'
p245
S'0x3F'
p246
ssS'upload'
p247
(dp248
S'speed'
p249
S'19200'
p250
sS'maximum_size'
p251
S'14336'
p252
sS'protocol'
p253
S'arduino'
p254
ssS'build'
p255
(dp256
S'core'
p257
S'arduino'
p258
sS'mcu'
p259
S'atmega168'
p260
sS'f_cpu'
p261
S'16000000L'
p262
sS'variant'
p263
S'eightanaloginputs'
p264
ssS'name'
p265
S'Arduino Nano w/ ATmega168'
p266
sg106
S'/usr/share/arduino/hardware/arduino'
p267
saa(lp268
S'mega2560'
p269
a(dp270
S'bootloader'
p271
(dp272
S'extended_fuses'
p273
S'0xFD'
p274
sS'high_fuses'
p275
S'0xD8'
p276
sS'low_fuses'
p277
S'0xFF'
p278
sS'lock_bits'
p279
S'0x0F'
p280
sS'file'
p281
S'stk500boot_v2_mega2560.hex'
p282
sS'path'
p283
S'stk500v2'
p284
sS'unlock_bits'
p285
S'0x3F'
p286
ssS'upload'
p287
(dp288
S'speed'
p289
S'115200'
p290
sS'maximum_size'
p291
S'258048'
p292
sS'protocol'
p293
S'stk500v2'
p294
ssS'build'
p295
(dp296
S'core'
p297
S'arduino'
p298
sS'mcu'
p299
S'atmega2560'
p300
sS'f_cpu'
p301
S'16000000L'
p302
sS'variant'
p303
S'mega'
p304
ssS'name'
p305
S'Arduino Mega 2560 or Mega ADK'
p306
sg106
S'/usr/share/arduino/hardware/arduino'
p307
saa(lp308
S'mega'
p309
a(dp310
S'bootloader'
p311
(dp312
S'extended_fuses'
p313
S'0xF5'
p314
sS'high_fuses'
p315
S'0xDA'
p316
sS'low_fuses'
p317
S'0xFF'
p318
sS'lock_bits'
p319
S'0x0F'
p320
sS'file'
p321
S'ATmegaBOOT_168_atmega1280.hex'
p322
sS'path'
p323
S'atmega'
p324
sS'unlock_bits'
p325
S'0x3F'
p326
ssS'upload'
p327
(dp328
S'speed'
p329
S'57600'
p330
sS'maximum_size'
p331
S'126976'
p332
sS'protocol'
p333
S'arduino'
p334
ssS'build'
p335
(dp336
S'core'
p337
S'arduino'
p338
sS'mcu'
p339
S'atmega1280'
p340
sS'f_cpu'
p341
S'16000000L'
p342
sS'variant'
p343
S'mega'
p344
ssS'name'
p345
S'Arduino Mega (ATmega1280)'
p346
sg106
S'/usr/share/arduino/hardware/arduino'
p347
saa(lp348
S'leonardo'
p349
a(dp350
S'bootloader'
p351
(dp352
S'extended_fuses'
p353
S'0xcb'
p354
sS'high_fuses'
p355
S'0xd8'
p356
sS'low_fuses'
p357
S'0xff'
p358
sS'lock_bits'
p359
S'0x2F'
p360
sS'file'
p361
S'Caterina-Leonardo.hex'
p362
sS'path'
p363
S'caterina'
p364
sS'unlock_bits'
p365
S'0x3F'
p366
ssS'upload'
p367
(dp368
S'speed'
p369
S'57600'
p370
sS'maximum_size'
p371
S'28672'
p372
sS'protocol'
p373
S'avr109'
p374
sS'disable_flushing'
p375
S'true'
p376
ssS'build'
p377
(dp378
S'core'
p379
S'arduino'
p380
sS'f_cpu'
p381
S'16000000L'
p382
sS'vid'
p383
S'0x2341'
p384
sS'pid'
p385
S'0x8036'
p386
sS'variant'
p387
S'leonardo'
p388
sS'mcu'
p389
S'atmega32u4'
p390
ssS'name'
p391
S'Arduino Leonardo'
p392
sg106
S'/usr/share/arduino/hardware/arduino'
p393
saa(lp394
S'mini328'
p395
a(dp396
S'bootloader'
p397
(dp398
S'extended_fuses'
p399
S'0x05'
p400
sS'high_fuses'
p401
S'0xd8'
p402
sS'low_fuses'
p403
S'0xff'
p404
sS'lock_bits'
p405
S'0x0F'
p406
sS'file'
p407
S'optiboot_atmega328-Mini.hex'
p408
sS'path'
p409
S'optiboot'
p410
sS'unlock_bits'
p411
S'0x3F'
p412
ssS'upload'
p413
(dp414
S'speed'
p415
S'115200'
p416
sS'maximum_size'
p417
S'28672'
p418
sS'protocol'
p419
S'arduino'
p420
ssS'build'
p421
(dp422
S'core'
p423
S'arduino'
p424
sS'mcu'
p425
S'atmega328p'
p426
sS'f_cpu'
p427
S'16000000L'
p428
sS'variant'
p429
S'eightanaloginputs'
p430
ssS'name'
p431
S'Arduino Mini w/ ATmega328'
p432
sg106
S'/usr/share/arduino/hardware/arduino'
p433
saa(lp434
S'mini'
p435
a(dp436
S'bootloader'
p437
(dp438
S'extended_fuses'
p439
S'0x00'
p440
sS'high_fuses'
p441
S'0xdd'
p442
sS'low_fuses'
p443
S'0xff'
p444
sS'lock_bits'
p445
S'0x0F'
p446
sS'file'
p447
S'ATmegaBOOT_168_ng.hex'
p448
sS'path'
p449
S'atmega'
p450
sS'unlock_bits'
p451
S'0x3F'
p452
ssS'upload'
p453
(dp454
S'speed'
p455
S'19200'
p456
sS'maximum_size'
p457
S'14336'
p458
sS'protocol'
p459
S'arduino'
p460
ssS'build'
p461
(dp462
S'core'
p463
S'arduino'
p464
sS'mcu'
p465
S'atmega168'
p466
sS'f_cpu'
p467
S'16000000L'
p468
sS'variant'
p469
S'eightanaloginputs'
p470
ssS'name'
p471
S'Arduino Mini w/ ATmega168'
p472
sg106
S'/usr/share/arduino/hardware/arduino'
p473
saa(lp474
S'ethernet'
p475
a(dp476
S'bootloader'
p477
(dp478
S'extended_fuses'
p479
S'0x05'
p480
sS'high_fuses'
p481
S'0xde'
p482
sS'low_fuses'
p483
S'0xff'
p484
sS'lock_bits'
p485
S'0x0F'
p486
sS'file'
p487
S'optiboot_atmega328.hex'
p488
sS'path'
p489
S'optiboot'
p490
sS'unlock_bits'
p491
S'0x3F'
p492
ssS'upload'
p493
(dp494
S'speed'
p495
S'115200'
p496
sS'maximum_size'
p497
S'32256'
p498
sS'protocol'
p499
S'arduino'
p500
ssS'build'
p501
(dp502
S'f_cpu'
p503
S'16000000L'
p504
sS'mcu'
p505
S'atmega328p'
p506
sS'variant'
p507
S'standard'
p508
sS'core'
p509
S'arduino'
p510
ssS'name'
p511
S'Arduino Ethernet'
p512
sg106
S'/usr/share/arduino/hardware/arduino'
p513
saa(lp514
S'fio'
p515
a(dp516
S'bootloader'
p517
(dp518
S'extended_fuses'
p519
S'0x05'
p520
sS'high_fuses'
p521
S'0xDA'
p522
sS'low_fuses'
p523
S'0xFF'
p524
sS'lock_bits'
p525
S'0x0F'
p526
sS'file'
p527
S'ATmegaBOOT_168_atmega328_pro_8MHz.hex'
p528
sS'path'
p529
S'arduino:atmega'
p530
sS'unlock_bits'
p531
S'0x3F'
p532
ssS'upload'
p533
(dp534
S'speed'
p535
S'57600'
p536
sS'maximum_size'
p537
S'30720'
p538
sS'protocol'
p539
S'arduino'
p540
ssS'build'
p541
(dp542
S'core'
p543
S'arduino'
p544
sS'mcu'
p545
S'atmega328p'
p546
sS'f_cpu'
p547
S'8000000L'
p548
sS'variant'
p549
S'eightanaloginputs'
p550
ssS'name'
p551
S'Arduino Fio'
p552
sg106
S'/usr/share/arduino/hardware/arduino'
p553
saa(lp554
S'bt328'
p555
a(dp556
S'bootloader'
p557
(dp558
S'extended_fuses'
p559
S'0x05'
p560
sS'high_fuses'
p561
S'0xd8'
p562
sS'low_fuses'
p563
S'0xff'
p564
sS'lock_bits'
p565
S'0x0F'
p566
sS'file'
p567
S'ATmegaBOOT_168_atmega328_bt.hex'
p568
sS'path'
p569
S'bt'
p570
sS'unlock_bits'
p571
S'0x3F'
p572
ssS'upload'
p573
(dp574
S'speed'
p575
S'19200'
p576
sS'maximum_size'
p577
S'28672'
p578
sS'protocol'
p579
S'arduino'
p580
sS'disable_flushing'
p581
S'true'
p582
ssS'build'
p583
(dp584
S'core'
p585
S'arduino'
p586
sS'mcu'
p587
S'atmega328p'
p588
sS'f_cpu'
p589
S'16000000L'
p590
sS'variant'
p591
S'eightanaloginputs'
p592
ssS'name'
p593
S'Arduino BT w/ ATmega328'
p594
sg106
S'/usr/share/arduino/hardware/arduino'
p595
saa(lp596
S'bt'
p597
a(dp598
S'bootloader'
p599
(dp600
S'extended_fuses'
p601
S'0x00'
p602
sS'high_fuses'
p603
S'0xdd'
p604
sS'low_fuses'
p605
S'0xff'
p606
sS'lock_bits'
p607
S'0x0F'
p608
sS'file'
p609
S'ATmegaBOOT_168.hex'
p610
sS'path'
p611
S'bt'
p612
sS'unlock_bits'
p613
S'0x3F'
p614
ssS'upload'
p615
(dp616
S'speed'
p617
S'19200'
p618
sS'maximum_size'
p619
S'14336'
p620
sS'protocol'
p621
S'arduino'
p622
sS'disable_flushing'
p623
S'true'
p624
ssS'build'
p625
(dp626
S'core'
p627
S'arduino'
p628
sS'mcu'
p629
S'atmega168'
p630
sS'f_cpu'
p631
S'16000000L'
p632
sS'variant'
p633
S'eightanaloginputs'
p634
ssS'name'
p635
S'Arduino BT w/ ATmega168'
p636
sg106
S'/usr/share/arduino/hardware/arduino'
p637
saa(lp638
S'lilypad328'
p639
a(dp640
S'bootloader'
p641
(dp642
S'extended_fuses'
p643
S'0x05'
p644
sS'high_fuses'
p645
S'0xDA'
p646
sS'low_fuses'
p647
S'0xFF'
p648
sS'lock_bits'
p649
S'0x0F'
p650
sS'file'
p651
S'ATmegaBOOT_168_atmega328_pro_8MHz.hex'
p652
sS'path'
p653
S'atmega'
p654
sS'unlock_bits'
p655
S'0x3F'
p656
ssS'upload'
p657
(dp658
S'speed'
p659
S'57600'
p660
sS'maximum_size'
p661
S'30720'
p662
sS'protocol'
p663
S'arduino'
p664
ssS'build'
p665
(dp666
S'core'
p667
S'arduino'
p668
sS'mcu'
p669
S'atmega328p'
p670
sS'f_cpu'
p671
S'8000000L'
p672
sS'variant'
p673
S'standard'
p674
ssS'name'
p675
S'LilyPad Arduino w/ ATmega328'
p676
sg106
S'/usr/share/arduino/hardware/arduino'
p677
saa(lp678
S'lilypad'
p679
a(dp680
S'bootloader'
p681
(dp682
S'extended_fuses'
p683
S'0x00'
p684
sS'high_fuses'
p685
S'0xdd'
p686
sS'low_fuses'
p687
S'0xe2'
p688
sS'lock_bits'
p689
S'0x0F'
p690
sS'file'
p691
S'LilyPadBOOT_168.hex'
p692
sS'path'
p693
S'lilypad'
p694
sS'unlock_bits'
p695
S'0x3F'
p696
ssS'upload'
p697
(dp698
S'speed'
p699
S'19200'
p700
sS'maximum_size'
p701
S'14336'
p702
sS'protocol'
p703
S'arduino'
p704
ssS'build'
p705
(dp706
S'core'
p707
S'arduino'
p708
sS'mcu'
p709
S'atmega168'
p710
sS'f_cpu'
p711
S'8000000L'
p712
sS'variant'
p713
S'standard'
p714
ssS'name'
p715
S'LilyPad Arduino w/ ATmega168'
p716
sg106
S'/usr/share/arduino/hardware/arduino'
p717
saa(lp718
S'pro5v328'
p719
a(dp720
S'bootloader'
p721
(dp722
S'extended_fuses'
p723
S'0x05'
p724
sS'high_fuses'
p725
S'0xDA'
p726
sS'low_fuses'
p727
S'0xFF'
p728
sS'lock_bits'
p729
S'0x0F'
p730
sS'file'
p731
S'ATmegaBOOT_168_atmega328.hex'
p732
sS'path'
p733
S'atmega'
p734
sS'unlock_bits'
p735
S'0x3F'
p736
ssS'upload'
p737
(dp738
S'speed'
p739
S'57600'
p740
sS'maximum_size'
p741
S'30720'
p742
sS'protocol'
p743
S'arduino'
p744
ssS'build'
p745
(dp746
S'core'
p747
S'arduino'
p748
sS'mcu'
p749
S'atmega328p'
p750
sS'f_cpu'
p751
S'16000000L'
p752
sS'variant'
p753
S'standard'
p754
ssS'name'
p755
S'Arduino Pro or Pro Mini (5V, 16 MHz) w/ ATmega328'
p756
sg106
S'/usr/share/arduino/hardware/arduino'
p757
saa(lp758
S'pro5v'
p759
a(dp760
S'bootloader'
p761
(dp762
S'extended_fuses'
p763
S'0x00'
p764
sS'high_fuses'
p765
S'0xdd'
p766
sS'low_fuses'
p767
S'0xff'
p768
sS'lock_bits'
p769
S'0x0F'
p770
sS'file'
p771
S'ATmegaBOOT_168_diecimila.hex'
p772
sS'path'
p773
S'atmega'
p774
sS'unlock_bits'
p775
S'0x3F'
p776
ssS'upload'
p777
(dp778
S'speed'
p779
S'19200'
p780
sS'maximum_size'
p781
S'14336'
p782
sS'protocol'
p783
S'arduino'
p784
ssS'build'
p785
(dp786
S'core'
p787
S'arduino'
p788
sS'mcu'
p789
S'atmega168'
p790
sS'f_cpu'
p791
S'16000000L'
p792
sS'variant'
p793
S'standard'
p794
ssS'name'
p795
S'Arduino Pro or Pro Mini (5V, 16 MHz) w/ ATmega168'
p796
sg106
S'/usr/share/arduino/hardware/arduino'
p797
saa(lp798
S'pro328'
p799
a(dp800
S'bootloader'
p801
(dp802
S'extended_fuses'
p803
S'0x05'
p804
sS'high_fuses'
p805
S'0xDA'
p806
sS'low_fuses'
p807
S'0xFF'
p808
sS'lock_bits'
p809
S'0x0F'
p810
sS'file'
p811
S'ATmegaBOOT_168_atmega328_pro_8MHz.hex'
p812
sS'path'
p813
S'atmega'
p814
sS'unlock_bits'
p815
S'0x3F'
p816
ssS'upload'
p817
(dp818
S'speed'
p819
S'57600'
p820
sS'maximum_size'
p821
S'30720'
p822
sS'protocol'
p823
S'arduino'
p824
ssS'build'
p825
(dp826
S'core'
p827
S'arduino'
p828
sS'mcu'
p829
S'atmega328p'
p830
sS'f_cpu'
p831
S'8000000L'
p832
sS'variant'
p833
S'standard'
p834
ssS'name'
p835
S'Arduino Pro or Pro Mini (3.3V, 8 MHz) w/ ATmega328'
p836
sg106
S'/usr/share/arduino/hardware/arduino'
p837
saa(lp838
S'pro'
p839
a(dp840
S'bootloader'
p841
(dp842
S'extended_fuses'
p843
S'0x00'
p844
sS'high_fuses'
p845
S'0xdd'
p846
sS'low_fuses'
p847
S'0xc6'
p848
sS'lock_bits'
p849
S'0x0F'
p850
sS'file'
p851
S'ATmegaBOOT_168_pro_8MHz.hex'
p852
sS'path'
p853
S'atmega'
p854
sS'unlock_bits'
p855
S'0x3F'
p856
ssS'upload'
p857
(dp858
S'speed'
p859
S'19200'
p860
sS'maximum_size'
p861
S'14336'
p862
sS'protocol'
p863
S'arduino'
p864
ssS'build'
p865
(dp866
S'core'
p867
S'arduino'
p868
sS'mcu'
p869
S'atmega168'
p870
sS'f_cpu'
p871
S'8000000L'
p872
sS'variant'
p873
S'standard'
p874
ssS'name'
p875
S'Arduino Pro or Pro Mini (3.3V, 8 MHz) w/ ATmega168'
p876
sg106
S'/usr/share/arduino/hardware/arduino'
p877
saa(lp878
S'atmega168'
p879
a(dp880
S'bootloader'
p881
(dp882
S'extended_fuses'
p883
S'0x00'
p884
sS'high_fuses'
p885
S'0xdd'
p886
sS'low_fuses'
p887
S'0xff'
p888
sS'lock_bits'
p889
S'0x0F'
p890
sS'file'
p891
S'ATmegaBOOT_168_ng.hex'
p892
sS'path'
p893
S'atmega'
p894
sS'unlock_bits'
p895
S'0x3F'
p896
ssS'upload'
p897
(dp898
S'speed'
p899
S'19200'
p900
sS'maximum_size'
p901
S'14336'
p902
sS'protocol'
p903
S'arduino'
p904
ssS'build'
p905
(dp906
S'core'
p907
S'arduino'
p908
sS'mcu'
p909
S'atmega168'
p910
sS'f_cpu'
p911
S'16000000L'
p912
sS'variant'
p913
S'standard'
p914
ssS'name'
p915
S'Arduino NG or older w/ ATmega168'
p916
sg106
S'/usr/share/arduino/hardware/arduino'
p917
saa(lp918
S'atmega8'
p919
a(dp920
S'bootloader'
p921
(dp922
S'high_fuses'
p923
S'0xca'
p924
sS'low_fuses'
p925
S'0xdf'
p926
sS'lock_bits'
p927
S'0x0F'
p928
sS'file'
p929
S'ATmegaBOOT.hex'
p930
sS'path'
p931
S'atmega8'
p932
sS'unlock_bits'
p933
S'0x3F'
p934
ssS'upload'
p935
(dp936
S'speed'
p937
S'19200'
p938
sS'maximum_size'
p939
S'7168'
p940
sS'protocol'
p941
S'arduino'
p942
ssS'build'
p943
(dp944
S'core'
p945
S'arduino'
p946
sS'mcu'
p947
S'atmega8'
p948
sS'f_cpu'
p949
S'16000000L'
p950
sS'variant'
p951
S'standard'
p952
ssS'name'
p953
S'Arduino NG or older w/ ATmega8'
p954
sg106
S'/usr/share/arduino/hardware/arduino'
p955
saatp956
Rp957
(dp958
S'default'
p959
S'uno'
p960
sbtp961
a(S'used_libs'
p962
(lp963
S'lib/TSL2561'
p964
aS'lib/NewPing'
p965
aS'/usr/share/arduino/libraries/Wire'
p966
aS'/usr/share/arduino/hardware/arduino/cores/arduino'
p967
atp968
a(S'make'
p969
S'/usr/bin/make'
p970
tp971
a(S'arduino_libraries_dir'
p972
S'/usr/share/arduino/libraries'
p973
tp974
a(S'cc'
p975
S'/usr/bin/avr-gcc'
p976
tp977
a(S'cflags'
p978
g2
(g3
g4
(lp979
tp980
Rp981
tp982
a(S'cxxflags'
p983
g2
(g3
g4
(lp984
S'-fno-exceptions'
p985
atp986
Rp987
tp988
a(S'arduino_variants_dir'
p989
S'/usr/share/arduino/hardware/arduino/variants'
p990
tp991
a(S'serial'
p992
S'/usr/bin/picocom'
p993
tp994
a(S'stty'
p995
S'/bin/stty'
p996
tp997
a(S'version.txt'
p998
S'/usr/share/arduino/lib/version.txt'
p999
tp1000
a(S'arduino_core_dir'
p1001
g967
tp1002
a(S'boards.txt'
p1003
(lp1004
S'/usr/share/arduino/hardware/arduino/boards.txt'
p1005
atp1006
a(S'avrdude.conf'
p1007
S'/usr/share/arduino/hardware/tools/avrdude.conf'
p1008
tp1009
a(S'deps'
p1010
g2
(g3
g4
(lp1011
S'.build/uno/src/dependencies.d'
p1012
aS'.build/uno/NewPing/dependencies.d'
p1013
aS'.build/uno/Wire/dependencies.d'
p1014
aS'.build/uno/TSL2561/dependencies.d'
p1015
aS'.build/uno/arduino/dependencies.d'
p1016
atp1017
Rp1018
tp1019
a.