(lp0
(S'cppflags'
p1
ccopy_reg
_reconstructor
p2
(cino.utils
SpaceList
p3
c__builtin__
list
p4
(lp5
S'-mmcu=atmega328p'
p6
aS'-DF_CPU=16000000L'
p7
aS'-DARDUINO=101'
p8
aS'-I/usr/share/arduino/hardware/arduino/cores/arduino'
p9
aS'-ffunction-sections'
p10
aS'-fdata-sections'
p11
aS'-g'
p12
aS'-Os'
p13
aS'-w'
p14
aS'-I/usr/share/arduino/hardware/arduino/variants/standard'
p15
aS'-Ilib/TSL2561'
p16
aS'-Ilib/NewPing'
p17
aS'-I/usr/share/arduino/libraries/Wire'
p18
aS'-I/usr/share/arduino/libraries/Wire/utility'
p19
aS'-I/usr/share/arduino/hardware/arduino/cores/arduino'
p20
aS'-I/usr/share/arduino/hardware/arduino/cores/arduino/avr-libc'
p21
atp22
Rp23
tp24
a(S'cxx'
p25
S'/usr/bin/avr-g++'
p26
tp27
a(S'arduino_libraries_dir'
p28
S'/usr/share/arduino/libraries'
p29
tp30
a(S'avrdude'
p31
S'/usr/share/arduino/hardware/tools/avrdude'
p32
tp33
a(S'ar'
p34
S'/usr/bin/avr-ar'
p35
tp36
a(S'names'
p37
(dp38
S'cpp'
p39
S'%s.cpp'
p40
sS'obj'
p41
S'%s.o'
p42
sS'lib'
p43
S'lib%s.a'
p44
sS'deps'
p45
S'%s.d'
p46
stp47
a(S'ldflags'
p48
g2
(g3
g4
(lp49
g6
aS'-Wl,-Os'
p50
aS'-Wl,--gc-sections'
p51
atp52
Rp53
tp54
a(S'arduino_lib_version'
p55
g2
(cino.environment
Version
p56
c__builtin__
tuple
p57
(I1
I0
I1
tp58
tp59
Rp60
tp61
a(S'objcopy'
p62
S'/usr/bin/avr-objcopy'
p63
tp64
a(S'board_models'
p65
cino.environment
BoardModels
p66
((lp67
(lp68
S'uno'
p69
a(dp70
S'_coredir'
p71
S'/usr/share/arduino/hardware/arduino'
p72
sS'bootloader'
p73
(dp74
S'extended_fuses'
p75
S'0x05'
p76
sS'high_fuses'
p77
S'0xde'
p78
sS'low_fuses'
p79
S'0xff'
p80
sS'lock_bits'
p81
S'0x0F'
p82
sS'file'
p83
S'optiboot_atmega328.hex'
p84
sS'path'
p85
S'optiboot'
p86
sS'unlock_bits'
p87
S'0x3F'
p88
ssS'upload'
p89
(dp90
S'protocol'
p91
S'arduino'
p92
sS'maximum_size'
p93
S'32256'
p94
sS'speed'
p95
S'115200'
p96
ssS'name'
p97
S'Arduino Uno'
p98
sS'build'
p99
(dp100
S'core'
p101
S'arduino'
p102
sS'mcu'
p103
S'atmega328p'
p104
sS'f_cpu'
p105
S'16000000L'
p106
sS'variant'
p107
S'standard'
p108
ssaa(lp109
S'atmega328'
p110
a(dp111
g71
S'/usr/share/arduino/hardware/arduino'
p112
sS'bootloader'
p113
(dp114
S'extended_fuses'
p115
S'0x05'
p116
sS'high_fuses'
p117
S'0xDA'
p118
sS'low_fuses'
p119
S'0xFF'
p120
sS'lock_bits'
p121
S'0x0F'
p122
sS'file'
p123
S'ATmegaBOOT_168_atmega328.hex'
p124
sS'path'
p125
S'atmega'
p126
sS'unlock_bits'
p127
S'0x3F'
p128
ssS'upload'
p129
(dp130
S'protocol'
p131
S'arduino'
p132
sS'maximum_size'
p133
S'30720'
p134
sS'speed'
p135
S'57600'
p136
ssS'name'
p137
S'Arduino Duemilanove w/ ATmega328'
p138
sS'build'
p139
(dp140
S'core'
p141
S'arduino'
p142
sS'mcu'
p143
S'atmega328p'
p144
sS'f_cpu'
p145
S'16000000L'
p146
sS'variant'
p147
S'standard'
p148
ssaa(lp149
S'diecimila'
p150
a(dp151
g71
S'/usr/share/arduino/hardware/arduino'
p152
sS'bootloader'
p153
(dp154
S'extended_fuses'
p155
S'0x00'
p156
sS'high_fuses'
p157
S'0xdd'
p158
sS'low_fuses'
p159
S'0xff'
p160
sS'lock_bits'
p161
S'0x0F'
p162
sS'file'
p163
S'ATmegaBOOT_168_diecimila.hex'
p164
sS'path'
p165
S'atmega'
p166
sS'unlock_bits'
p167
S'0x3F'
p168
ssS'upload'
p169
(dp170
S'protocol'
p171
S'arduino'
p172
sS'maximum_size'
p173
S'14336'
p174
sS'speed'
p175
S'19200'
p176
ssS'name'
p177
S'Arduino Diecimila or Duemilanove w/ ATmega168'
p178
sS'build'
p179
(dp180
S'core'
p181
S'arduino'
p182
sS'mcu'
p183
S'atmega168'
p184
sS'f_cpu'
p185
S'16000000L'
p186
sS'variant'
p187
S'standard'
p188
ssaa(lp189
S'nano328'
p190
a(dp191
g71
S'/usr/share/arduino/hardware/arduino'
p192
sS'bootloader'
p193
(dp194
S'extended_fuses'
p195
S'0x05'
p196
sS'high_fuses'
p197
S'0xDA'
p198
sS'low_fuses'
p199
S'0xFF'
p200
sS'lock_bits'
p201
S'0x0F'
p202
sS'file'
p203
S'ATmegaBOOT_168_atmega328.hex'
p204
sS'path'
p205
S'atmega'
p206
sS'unlock_bits'
p207
S'0x3F'
p208
ssS'upload'
p209
(dp210
S'protocol'
p211
S'arduino'
p212
sS'maximum_size'
p213
S'30720'
p214
sS'speed'
p215
S'57600'
p216
ssS'name'
p217
S'Arduino Nano w/ ATmega328'
p218
sS'build'
p219
(dp220
S'core'
p221
S'arduino'
p222
sS'mcu'
p223
S'atmega328p'
p224
sS'f_cpu'
p225
S'16000000L'
p226
sS'variant'
p227
S'eightanaloginputs'
p228
ssaa(lp229
S'nano'
p230
a(dp231
g71
S'/usr/share/arduino/hardware/arduino'
p232
sS'bootloader'
p233
(dp234
S'extended_fuses'
p235
S'0x00'
p236
sS'high_fuses'
p237
S'0xdd'
p238
sS'low_fuses'
p239
S'0xff'
p240
sS'lock_bits'
p241
S'0x0F'
p242
sS'file'
p243
S'ATmegaBOOT_168_diecimila.hex'
p244
sS'path'
p245
S'atmega'
p246
sS'unlock_bits'
p247
S'0x3F'
p248
ssS'upload'
p249
(dp250
S'protocol'
p251
S'arduino'
p252
sS'maximum_size'
p253
S'14336'
p254
sS'speed'
p255
S'19200'
p256
ssS'name'
p257
S'Arduino Nano w/ ATmega168'
p258
sS'build'
p259
(dp260
S'core'
p261
S'arduino'
p262
sS'mcu'
p263
S'atmega168'
p264
sS'f_cpu'
p265
S'16000000L'
p266
sS'variant'
p267
S'eightanaloginputs'
p268
ssaa(lp269
S'mega2560'
p270
a(dp271
g71
S'/usr/share/arduino/hardware/arduino'
p272
sS'bootloader'
p273
(dp274
S'extended_fuses'
p275
S'0xFD'
p276
sS'high_fuses'
p277
S'0xD8'
p278
sS'low_fuses'
p279
S'0xFF'
p280
sS'lock_bits'
p281
S'0x0F'
p282
sS'file'
p283
S'stk500boot_v2_mega2560.hex'
p284
sS'path'
p285
S'stk500v2'
p286
sS'unlock_bits'
p287
S'0x3F'
p288
ssS'upload'
p289
(dp290
S'protocol'
p291
S'stk500v2'
p292
sS'maximum_size'
p293
S'258048'
p294
sS'speed'
p295
S'115200'
p296
ssS'name'
p297
S'Arduino Mega 2560 or Mega ADK'
p298
sS'build'
p299
(dp300
S'core'
p301
S'arduino'
p302
sS'mcu'
p303
S'atmega2560'
p304
sS'f_cpu'
p305
S'16000000L'
p306
sS'variant'
p307
S'mega'
p308
ssaa(lp309
S'mega'
p310
a(dp311
g71
S'/usr/share/arduino/hardware/arduino'
p312
sS'bootloader'
p313
(dp314
S'extended_fuses'
p315
S'0xF5'
p316
sS'high_fuses'
p317
S'0xDA'
p318
sS'low_fuses'
p319
S'0xFF'
p320
sS'lock_bits'
p321
S'0x0F'
p322
sS'file'
p323
S'ATmegaBOOT_168_atmega1280.hex'
p324
sS'path'
p325
S'atmega'
p326
sS'unlock_bits'
p327
S'0x3F'
p328
ssS'upload'
p329
(dp330
S'protocol'
p331
S'arduino'
p332
sS'maximum_size'
p333
S'126976'
p334
sS'speed'
p335
S'57600'
p336
ssS'name'
p337
S'Arduino Mega (ATmega1280)'
p338
sS'build'
p339
(dp340
S'core'
p341
S'arduino'
p342
sS'mcu'
p343
S'atmega1280'
p344
sS'f_cpu'
p345
S'16000000L'
p346
sS'variant'
p347
S'mega'
p348
ssaa(lp349
S'leonardo'
p350
a(dp351
g71
S'/usr/share/arduino/hardware/arduino'
p352
sS'bootloader'
p353
(dp354
S'extended_fuses'
p355
S'0xcb'
p356
sS'high_fuses'
p357
S'0xd8'
p358
sS'low_fuses'
p359
S'0xff'
p360
sS'lock_bits'
p361
S'0x2F'
p362
sS'file'
p363
S'Caterina-Leonardo.hex'
p364
sS'path'
p365
S'caterina'
p366
sS'unlock_bits'
p367
S'0x3F'
p368
ssS'upload'
p369
(dp370
S'protocol'
p371
S'avr109'
p372
sS'maximum_size'
p373
S'28672'
p374
sS'speed'
p375
S'57600'
p376
sS'disable_flushing'
p377
S'true'
p378
ssS'name'
p379
S'Arduino Leonardo'
p380
sS'build'
p381
(dp382
S'core'
p383
S'arduino'
p384
sS'f_cpu'
p385
S'16000000L'
p386
sS'vid'
p387
S'0x2341'
p388
sS'pid'
p389
S'0x8036'
p390
sS'variant'
p391
S'leonardo'
p392
sS'mcu'
p393
S'atmega32u4'
p394
ssaa(lp395
S'mini328'
p396
a(dp397
g71
S'/usr/share/arduino/hardware/arduino'
p398
sS'bootloader'
p399
(dp400
S'extended_fuses'
p401
S'0x05'
p402
sS'high_fuses'
p403
S'0xd8'
p404
sS'low_fuses'
p405
S'0xff'
p406
sS'lock_bits'
p407
S'0x0F'
p408
sS'file'
p409
S'optiboot_atmega328-Mini.hex'
p410
sS'path'
p411
S'optiboot'
p412
sS'unlock_bits'
p413
S'0x3F'
p414
ssS'upload'
p415
(dp416
S'protocol'
p417
S'arduino'
p418
sS'maximum_size'
p419
S'28672'
p420
sS'speed'
p421
S'115200'
p422
ssS'name'
p423
S'Arduino Mini w/ ATmega328'
p424
sS'build'
p425
(dp426
S'core'
p427
S'arduino'
p428
sS'mcu'
p429
S'atmega328p'
p430
sS'f_cpu'
p431
S'16000000L'
p432
sS'variant'
p433
S'eightanaloginputs'
p434
ssaa(lp435
S'mini'
p436
a(dp437
g71
S'/usr/share/arduino/hardware/arduino'
p438
sS'bootloader'
p439
(dp440
S'extended_fuses'
p441
S'0x00'
p442
sS'high_fuses'
p443
S'0xdd'
p444
sS'low_fuses'
p445
S'0xff'
p446
sS'lock_bits'
p447
S'0x0F'
p448
sS'file'
p449
S'ATmegaBOOT_168_ng.hex'
p450
sS'path'
p451
S'atmega'
p452
sS'unlock_bits'
p453
S'0x3F'
p454
ssS'upload'
p455
(dp456
S'protocol'
p457
S'arduino'
p458
sS'maximum_size'
p459
S'14336'
p460
sS'speed'
p461
S'19200'
p462
ssS'name'
p463
S'Arduino Mini w/ ATmega168'
p464
sS'build'
p465
(dp466
S'core'
p467
S'arduino'
p468
sS'mcu'
p469
S'atmega168'
p470
sS'f_cpu'
p471
S'16000000L'
p472
sS'variant'
p473
S'eightanaloginputs'
p474
ssaa(lp475
S'ethernet'
p476
a(dp477
g71
S'/usr/share/arduino/hardware/arduino'
p478
sS'bootloader'
p479
(dp480
S'extended_fuses'
p481
S'0x05'
p482
sS'high_fuses'
p483
S'0xde'
p484
sS'low_fuses'
p485
S'0xff'
p486
sS'lock_bits'
p487
S'0x0F'
p488
sS'file'
p489
S'optiboot_atmega328.hex'
p490
sS'path'
p491
S'optiboot'
p492
sS'unlock_bits'
p493
S'0x3F'
p494
ssS'upload'
p495
(dp496
S'protocol'
p497
S'arduino'
p498
sS'maximum_size'
p499
S'32256'
p500
sS'speed'
p501
S'115200'
p502
ssS'name'
p503
S'Arduino Ethernet'
p504
sS'build'
p505
(dp506
S'variant'
p507
S'standard'
p508
sS'mcu'
p509
S'atmega328p'
p510
sS'f_cpu'
p511
S'16000000L'
p512
sS'core'
p513
S'arduino'
p514
ssaa(lp515
S'fio'
p516
a(dp517
g71
S'/usr/share/arduino/hardware/arduino'
p518
sS'bootloader'
p519
(dp520
S'extended_fuses'
p521
S'0x05'
p522
sS'high_fuses'
p523
S'0xDA'
p524
sS'low_fuses'
p525
S'0xFF'
p526
sS'lock_bits'
p527
S'0x0F'
p528
sS'file'
p529
S'ATmegaBOOT_168_atmega328_pro_8MHz.hex'
p530
sS'path'
p531
S'arduino:atmega'
p532
sS'unlock_bits'
p533
S'0x3F'
p534
ssS'upload'
p535
(dp536
S'protocol'
p537
S'arduino'
p538
sS'maximum_size'
p539
S'30720'
p540
sS'speed'
p541
S'57600'
p542
ssS'name'
p543
S'Arduino Fio'
p544
sS'build'
p545
(dp546
S'core'
p547
S'arduino'
p548
sS'mcu'
p549
S'atmega328p'
p550
sS'f_cpu'
p551
S'8000000L'
p552
sS'variant'
p553
S'eightanaloginputs'
p554
ssaa(lp555
S'bt328'
p556
a(dp557
g71
S'/usr/share/arduino/hardware/arduino'
p558
sS'bootloader'
p559
(dp560
S'extended_fuses'
p561
S'0x05'
p562
sS'high_fuses'
p563
S'0xd8'
p564
sS'low_fuses'
p565
S'0xff'
p566
sS'lock_bits'
p567
S'0x0F'
p568
sS'file'
p569
S'ATmegaBOOT_168_atmega328_bt.hex'
p570
sS'path'
p571
S'bt'
p572
sS'unlock_bits'
p573
S'0x3F'
p574
ssS'upload'
p575
(dp576
S'protocol'
p577
S'arduino'
p578
sS'maximum_size'
p579
S'28672'
p580
sS'speed'
p581
S'19200'
p582
sS'disable_flushing'
p583
S'true'
p584
ssS'name'
p585
S'Arduino BT w/ ATmega328'
p586
sS'build'
p587
(dp588
S'core'
p589
S'arduino'
p590
sS'mcu'
p591
S'atmega328p'
p592
sS'f_cpu'
p593
S'16000000L'
p594
sS'variant'
p595
S'eightanaloginputs'
p596
ssaa(lp597
S'bt'
p598
a(dp599
g71
S'/usr/share/arduino/hardware/arduino'
p600
sS'bootloader'
p601
(dp602
S'extended_fuses'
p603
S'0x00'
p604
sS'high_fuses'
p605
S'0xdd'
p606
sS'low_fuses'
p607
S'0xff'
p608
sS'lock_bits'
p609
S'0x0F'
p610
sS'file'
p611
S'ATmegaBOOT_168.hex'
p612
sS'path'
p613
S'bt'
p614
sS'unlock_bits'
p615
S'0x3F'
p616
ssS'upload'
p617
(dp618
S'protocol'
p619
S'arduino'
p620
sS'maximum_size'
p621
S'14336'
p622
sS'speed'
p623
S'19200'
p624
sS'disable_flushing'
p625
S'true'
p626
ssS'name'
p627
S'Arduino BT w/ ATmega168'
p628
sS'build'
p629
(dp630
S'core'
p631
S'arduino'
p632
sS'mcu'
p633
S'atmega168'
p634
sS'f_cpu'
p635
S'16000000L'
p636
sS'variant'
p637
S'eightanaloginputs'
p638
ssaa(lp639
S'lilypad328'
p640
a(dp641
g71
S'/usr/share/arduino/hardware/arduino'
p642
sS'bootloader'
p643
(dp644
S'extended_fuses'
p645
S'0x05'
p646
sS'high_fuses'
p647
S'0xDA'
p648
sS'low_fuses'
p649
S'0xFF'
p650
sS'lock_bits'
p651
S'0x0F'
p652
sS'file'
p653
S'ATmegaBOOT_168_atmega328_pro_8MHz.hex'
p654
sS'path'
p655
S'atmega'
p656
sS'unlock_bits'
p657
S'0x3F'
p658
ssS'upload'
p659
(dp660
S'protocol'
p661
S'arduino'
p662
sS'maximum_size'
p663
S'30720'
p664
sS'speed'
p665
S'57600'
p666
ssS'name'
p667
S'LilyPad Arduino w/ ATmega328'
p668
sS'build'
p669
(dp670
S'core'
p671
S'arduino'
p672
sS'mcu'
p673
S'atmega328p'
p674
sS'f_cpu'
p675
S'8000000L'
p676
sS'variant'
p677
S'standard'
p678
ssaa(lp679
S'lilypad'
p680
a(dp681
g71
S'/usr/share/arduino/hardware/arduino'
p682
sS'bootloader'
p683
(dp684
S'extended_fuses'
p685
S'0x00'
p686
sS'high_fuses'
p687
S'0xdd'
p688
sS'low_fuses'
p689
S'0xe2'
p690
sS'lock_bits'
p691
S'0x0F'
p692
sS'file'
p693
S'LilyPadBOOT_168.hex'
p694
sS'path'
p695
S'lilypad'
p696
sS'unlock_bits'
p697
S'0x3F'
p698
ssS'upload'
p699
(dp700
S'protocol'
p701
S'arduino'
p702
sS'maximum_size'
p703
S'14336'
p704
sS'speed'
p705
S'19200'
p706
ssS'name'
p707
S'LilyPad Arduino w/ ATmega168'
p708
sS'build'
p709
(dp710
S'core'
p711
S'arduino'
p712
sS'mcu'
p713
S'atmega168'
p714
sS'f_cpu'
p715
S'8000000L'
p716
sS'variant'
p717
S'standard'
p718
ssaa(lp719
S'pro5v328'
p720
a(dp721
g71
S'/usr/share/arduino/hardware/arduino'
p722
sS'bootloader'
p723
(dp724
S'extended_fuses'
p725
S'0x05'
p726
sS'high_fuses'
p727
S'0xDA'
p728
sS'low_fuses'
p729
S'0xFF'
p730
sS'lock_bits'
p731
S'0x0F'
p732
sS'file'
p733
S'ATmegaBOOT_168_atmega328.hex'
p734
sS'path'
p735
S'atmega'
p736
sS'unlock_bits'
p737
S'0x3F'
p738
ssS'upload'
p739
(dp740
S'protocol'
p741
S'arduino'
p742
sS'maximum_size'
p743
S'30720'
p744
sS'speed'
p745
S'57600'
p746
ssS'name'
p747
S'Arduino Pro or Pro Mini (5V, 16 MHz) w/ ATmega328'
p748
sS'build'
p749
(dp750
S'core'
p751
S'arduino'
p752
sS'mcu'
p753
S'atmega328p'
p754
sS'f_cpu'
p755
S'16000000L'
p756
sS'variant'
p757
S'standard'
p758
ssaa(lp759
S'pro5v'
p760
a(dp761
g71
S'/usr/share/arduino/hardware/arduino'
p762
sS'bootloader'
p763
(dp764
S'extended_fuses'
p765
S'0x00'
p766
sS'high_fuses'
p767
S'0xdd'
p768
sS'low_fuses'
p769
S'0xff'
p770
sS'lock_bits'
p771
S'0x0F'
p772
sS'file'
p773
S'ATmegaBOOT_168_diecimila.hex'
p774
sS'path'
p775
S'atmega'
p776
sS'unlock_bits'
p777
S'0x3F'
p778
ssS'upload'
p779
(dp780
S'protocol'
p781
S'arduino'
p782
sS'maximum_size'
p783
S'14336'
p784
sS'speed'
p785
S'19200'
p786
ssS'name'
p787
S'Arduino Pro or Pro Mini (5V, 16 MHz) w/ ATmega168'
p788
sS'build'
p789
(dp790
S'core'
p791
S'arduino'
p792
sS'mcu'
p793
S'atmega168'
p794
sS'f_cpu'
p795
S'16000000L'
p796
sS'variant'
p797
S'standard'
p798
ssaa(lp799
S'pro328'
p800
a(dp801
g71
S'/usr/share/arduino/hardware/arduino'
p802
sS'bootloader'
p803
(dp804
S'extended_fuses'
p805
S'0x05'
p806
sS'high_fuses'
p807
S'0xDA'
p808
sS'low_fuses'
p809
S'0xFF'
p810
sS'lock_bits'
p811
S'0x0F'
p812
sS'file'
p813
S'ATmegaBOOT_168_atmega328_pro_8MHz.hex'
p814
sS'path'
p815
S'atmega'
p816
sS'unlock_bits'
p817
S'0x3F'
p818
ssS'upload'
p819
(dp820
S'protocol'
p821
S'arduino'
p822
sS'maximum_size'
p823
S'30720'
p824
sS'speed'
p825
S'57600'
p826
ssS'name'
p827
S'Arduino Pro or Pro Mini (3.3V, 8 MHz) w/ ATmega328'
p828
sS'build'
p829
(dp830
S'core'
p831
S'arduino'
p832
sS'mcu'
p833
S'atmega328p'
p834
sS'f_cpu'
p835
S'8000000L'
p836
sS'variant'
p837
S'standard'
p838
ssaa(lp839
S'pro'
p840
a(dp841
g71
S'/usr/share/arduino/hardware/arduino'
p842
sS'bootloader'
p843
(dp844
S'extended_fuses'
p845
S'0x00'
p846
sS'high_fuses'
p847
S'0xdd'
p848
sS'low_fuses'
p849
S'0xc6'
p850
sS'lock_bits'
p851
S'0x0F'
p852
sS'file'
p853
S'ATmegaBOOT_168_pro_8MHz.hex'
p854
sS'path'
p855
S'atmega'
p856
sS'unlock_bits'
p857
S'0x3F'
p858
ssS'upload'
p859
(dp860
S'protocol'
p861
S'arduino'
p862
sS'maximum_size'
p863
S'14336'
p864
sS'speed'
p865
S'19200'
p866
ssS'name'
p867
S'Arduino Pro or Pro Mini (3.3V, 8 MHz) w/ ATmega168'
p868
sS'build'
p869
(dp870
S'core'
p871
S'arduino'
p872
sS'mcu'
p873
S'atmega168'
p874
sS'f_cpu'
p875
S'8000000L'
p876
sS'variant'
p877
S'standard'
p878
ssaa(lp879
S'atmega168'
p880
a(dp881
g71
S'/usr/share/arduino/hardware/arduino'
p882
sS'bootloader'
p883
(dp884
S'extended_fuses'
p885
S'0x00'
p886
sS'high_fuses'
p887
S'0xdd'
p888
sS'low_fuses'
p889
S'0xff'
p890
sS'lock_bits'
p891
S'0x0F'
p892
sS'file'
p893
S'ATmegaBOOT_168_ng.hex'
p894
sS'path'
p895
S'atmega'
p896
sS'unlock_bits'
p897
S'0x3F'
p898
ssS'upload'
p899
(dp900
S'protocol'
p901
S'arduino'
p902
sS'maximum_size'
p903
S'14336'
p904
sS'speed'
p905
S'19200'
p906
ssS'name'
p907
S'Arduino NG or older w/ ATmega168'
p908
sS'build'
p909
(dp910
S'core'
p911
S'arduino'
p912
sS'mcu'
p913
S'atmega168'
p914
sS'f_cpu'
p915
S'16000000L'
p916
sS'variant'
p917
S'standard'
p918
ssaa(lp919
S'atmega8'
p920
a(dp921
g71
S'/usr/share/arduino/hardware/arduino'
p922
sS'bootloader'
p923
(dp924
S'high_fuses'
p925
S'0xca'
p926
sS'low_fuses'
p927
S'0xdf'
p928
sS'lock_bits'
p929
S'0x0F'
p930
sS'file'
p931
S'ATmegaBOOT.hex'
p932
sS'path'
p933
S'atmega8'
p934
sS'unlock_bits'
p935
S'0x3F'
p936
ssS'upload'
p937
(dp938
S'protocol'
p939
S'arduino'
p940
sS'maximum_size'
p941
S'7168'
p942
sS'speed'
p943
S'19200'
p944
ssS'name'
p945
S'Arduino NG or older w/ ATmega8'
p946
sS'build'
p947
(dp948
S'core'
p949
S'arduino'
p950
sS'mcu'
p951
S'atmega8'
p952
sS'f_cpu'
p953
S'16000000L'
p954
sS'variant'
p955
S'standard'
p956
ssaatp957
Rp958
(dp959
S'default'
p960
S'uno'
p961
sbtp962
a(S'used_libs'
p963
(lp964
S'lib/TSL2561'
p965
aS'lib/NewPing'
p966
aS'/usr/share/arduino/libraries/Wire'
p967
aS'/usr/share/arduino/hardware/arduino/cores/arduino'
p968
atp969
a(S'make'
p970
S'/usr/bin/make'
p971
tp972
a(S'build_dir'
p973
S'.build/uno'
p974
tp975
a(S'cc'
p976
S'/usr/bin/avr-gcc'
p977
tp978
a(S'cflags'
p979
g2
(g3
g4
(lp980
tp981
Rp982
tp983
a(S'cxxflags'
p984
g2
(g3
g4
(lp985
S'-fno-exceptions'
p986
atp987
Rp988
tp989
a(S'arduino_variants_dir'
p990
S'/usr/share/arduino/hardware/arduino/variants'
p991
tp992
a(S'serial'
p993
S'/usr/bin/picocom'
p994
tp995
a(S'stty'
p996
S'/bin/stty'
p997
tp998
a(S'version.txt'
p999
S'/usr/share/arduino/lib/version.txt'
p1000
tp1001
a(S'arduino_core_dir'
p1002
g968
tp1003
a(S'boards.txt'
p1004
(lp1005
S'/usr/share/arduino/hardware/arduino/boards.txt'
p1006
atp1007
a(S'avrdude.conf'
p1008
S'/usr/share/arduino/hardware/tools/avrdude.conf'
p1009
tp1010
a(S'deps'
p1011
g2
(g3
g4
(lp1012
S'.build/uno/src/dependencies.d'
p1013
aS'.build/uno/NewPing/dependencies.d'
p1014
aS'.build/uno/Wire/dependencies.d'
p1015
aS'.build/uno/TSL2561/dependencies.d'
p1016
aS'.build/uno/arduino/dependencies.d'
p1017
atp1018
Rp1019
tp1020
a.