(lp0
(S'cppflags'
p1
ccopy_reg
_reconstructor
p2
(cino.utils
SpaceList
p3
c__builtin__
list
p4
(lp5
S'-mmcu=atmega328p'
p6
aS'-DF_CPU=16000000L'
p7
aS'-DARDUINO=101'
p8
aS'-I/usr/share/arduino/hardware/arduino/cores/arduino'
p9
aS'-ffunction-sections'
p10
aS'-fdata-sections'
p11
aS'-g'
p12
aS'-Os'
p13
aS'-w'
p14
aS'-I/usr/share/arduino/hardware/arduino/variants/standard'
p15
aS'-Ilib/TSL2561'
p16
aS'-Ilib/NewPing'
p17
aS'-I/usr/share/arduino/libraries/Wire'
p18
aS'-I/usr/share/arduino/libraries/Wire/utility'
p19
aS'-I/usr/share/arduino/hardware/arduino/cores/arduino'
p20
aS'-I/usr/share/arduino/hardware/arduino/cores/arduino/avr-libc'
p21
atp22
Rp23
tp24
a(S'cxx'
p25
S'/usr/bin/avr-g++'
p26
tp27
a(S'arduino_libraries_dir'
p28
S'/usr/share/arduino/libraries'
p29
tp30
a(S'avrdude'
p31
S'/usr/share/arduino/hardware/tools/avrdude'
p32
tp33
a(S'ar'
p34
S'/usr/bin/avr-ar'
p35
tp36
a(S'names'
p37
(dp38
S'cpp'
p39
S'%s.cpp'
p40
sS'obj'
p41
S'%s.o'
p42
sS'deps'
p43
S'%s.d'
p44
sS'lib'
p45
S'lib%s.a'
p46
stp47
a(S'ldflags'
p48
g2
(g3
g4
(lp49
g6
aS'-Wl,-Os'
p50
aS'-Wl,--gc-sections'
p51
atp52
Rp53
tp54
a(S'arduino_lib_version'
p55
g2
(cino.environment
Version
p56
c__builtin__
tuple
p57
(I1
I0
I1
tp58
tp59
Rp60
tp61
a(S'objcopy'
p62
S'/usr/bin/avr-objcopy'
p63
tp64
a(S'board_models'
p65
cino.environment
BoardModels
p66
((lp67
(lp68
S'uno'
p69
a(dp70
S'_coredir'
p71
S'/usr/share/arduino/hardware/arduino'
p72
sS'bootloader'
p73
(dp74
S'extended_fuses'
p75
S'0x05'
p76
sS'high_fuses'
p77
S'0xde'
p78
sS'low_fuses'
p79
S'0xff'
p80
sS'lock_bits'
p81
S'0x0F'
p82
sS'file'
p83
S'optiboot_atmega328.hex'
p84
sS'path'
p85
S'optiboot'
p86
sS'unlock_bits'
p87
S'0x3F'
p88
ssS'build'
p89
(dp90
S'core'
p91
S'arduino'
p92
sS'mcu'
p93
S'atmega328p'
p94
sS'f_cpu'
p95
S'16000000L'
p96
sS'variant'
p97
S'standard'
p98
ssS'name'
p99
S'Arduino Uno'
p100
sS'upload'
p101
(dp102
S'protocol'
p103
S'arduino'
p104
sS'maximum_size'
p105
S'32256'
p106
sS'speed'
p107
S'115200'
p108
ssaa(lp109
S'atmega328'
p110
a(dp111
g71
S'/usr/share/arduino/hardware/arduino'
p112
sS'bootloader'
p113
(dp114
S'extended_fuses'
p115
S'0x05'
p116
sS'high_fuses'
p117
S'0xDA'
p118
sS'low_fuses'
p119
S'0xFF'
p120
sS'lock_bits'
p121
S'0x0F'
p122
sS'file'
p123
S'ATmegaBOOT_168_atmega328.hex'
p124
sS'path'
p125
S'atmega'
p126
sS'unlock_bits'
p127
S'0x3F'
p128
ssS'build'
p129
(dp130
S'core'
p131
S'arduino'
p132
sS'mcu'
p133
S'atmega328p'
p134
sS'f_cpu'
p135
S'16000000L'
p136
sS'variant'
p137
S'standard'
p138
ssS'name'
p139
S'Arduino Duemilanove w/ ATmega328'
p140
sS'upload'
p141
(dp142
S'protocol'
p143
S'arduino'
p144
sS'maximum_size'
p145
S'30720'
p146
sS'speed'
p147
S'57600'
p148
ssaa(lp149
S'diecimila'
p150
a(dp151
g71
S'/usr/share/arduino/hardware/arduino'
p152
sS'bootloader'
p153
(dp154
S'extended_fuses'
p155
S'0x00'
p156
sS'high_fuses'
p157
S'0xdd'
p158
sS'low_fuses'
p159
S'0xff'
p160
sS'lock_bits'
p161
S'0x0F'
p162
sS'file'
p163
S'ATmegaBOOT_168_diecimila.hex'
p164
sS'path'
p165
S'atmega'
p166
sS'unlock_bits'
p167
S'0x3F'
p168
ssS'build'
p169
(dp170
S'core'
p171
S'arduino'
p172
sS'mcu'
p173
S'atmega168'
p174
sS'f_cpu'
p175
S'16000000L'
p176
sS'variant'
p177
S'standard'
p178
ssS'name'
p179
S'Arduino Diecimila or Duemilanove w/ ATmega168'
p180
sS'upload'
p181
(dp182
S'protocol'
p183
S'arduino'
p184
sS'maximum_size'
p185
S'14336'
p186
sS'speed'
p187
S'19200'
p188
ssaa(lp189
S'nano328'
p190
a(dp191
g71
S'/usr/share/arduino/hardware/arduino'
p192
sS'bootloader'
p193
(dp194
S'extended_fuses'
p195
S'0x05'
p196
sS'high_fuses'
p197
S'0xDA'
p198
sS'low_fuses'
p199
S'0xFF'
p200
sS'lock_bits'
p201
S'0x0F'
p202
sS'file'
p203
S'ATmegaBOOT_168_atmega328.hex'
p204
sS'path'
p205
S'atmega'
p206
sS'unlock_bits'
p207
S'0x3F'
p208
ssS'build'
p209
(dp210
S'core'
p211
S'arduino'
p212
sS'mcu'
p213
S'atmega328p'
p214
sS'f_cpu'
p215
S'16000000L'
p216
sS'variant'
p217
S'eightanaloginputs'
p218
ssS'name'
p219
S'Arduino Nano w/ ATmega328'
p220
sS'upload'
p221
(dp222
S'protocol'
p223
S'arduino'
p224
sS'maximum_size'
p225
S'30720'
p226
sS'speed'
p227
S'57600'
p228
ssaa(lp229
S'nano'
p230
a(dp231
g71
S'/usr/share/arduino/hardware/arduino'
p232
sS'bootloader'
p233
(dp234
S'extended_fuses'
p235
S'0x00'
p236
sS'high_fuses'
p237
S'0xdd'
p238
sS'low_fuses'
p239
S'0xff'
p240
sS'lock_bits'
p241
S'0x0F'
p242
sS'file'
p243
S'ATmegaBOOT_168_diecimila.hex'
p244
sS'path'
p245
S'atmega'
p246
sS'unlock_bits'
p247
S'0x3F'
p248
ssS'build'
p249
(dp250
S'core'
p251
S'arduino'
p252
sS'mcu'
p253
S'atmega168'
p254
sS'f_cpu'
p255
S'16000000L'
p256
sS'variant'
p257
S'eightanaloginputs'
p258
ssS'name'
p259
S'Arduino Nano w/ ATmega168'
p260
sS'upload'
p261
(dp262
S'protocol'
p263
S'arduino'
p264
sS'maximum_size'
p265
S'14336'
p266
sS'speed'
p267
S'19200'
p268
ssaa(lp269
S'mega2560'
p270
a(dp271
g71
S'/usr/share/arduino/hardware/arduino'
p272
sS'bootloader'
p273
(dp274
S'extended_fuses'
p275
S'0xFD'
p276
sS'high_fuses'
p277
S'0xD8'
p278
sS'low_fuses'
p279
S'0xFF'
p280
sS'lock_bits'
p281
S'0x0F'
p282
sS'file'
p283
S'stk500boot_v2_mega2560.hex'
p284
sS'path'
p285
S'stk500v2'
p286
sS'unlock_bits'
p287
S'0x3F'
p288
ssS'build'
p289
(dp290
S'core'
p291
S'arduino'
p292
sS'mcu'
p293
S'atmega2560'
p294
sS'f_cpu'
p295
S'16000000L'
p296
sS'variant'
p297
S'mega'
p298
ssS'name'
p299
S'Arduino Mega 2560 or Mega ADK'
p300
sS'upload'
p301
(dp302
S'protocol'
p303
S'stk500v2'
p304
sS'maximum_size'
p305
S'258048'
p306
sS'speed'
p307
S'115200'
p308
ssaa(lp309
S'mega'
p310
a(dp311
g71
S'/usr/share/arduino/hardware/arduino'
p312
sS'bootloader'
p313
(dp314
S'extended_fuses'
p315
S'0xF5'
p316
sS'high_fuses'
p317
S'0xDA'
p318
sS'low_fuses'
p319
S'0xFF'
p320
sS'lock_bits'
p321
S'0x0F'
p322
sS'file'
p323
S'ATmegaBOOT_168_atmega1280.hex'
p324
sS'path'
p325
S'atmega'
p326
sS'unlock_bits'
p327
S'0x3F'
p328
ssS'build'
p329
(dp330
S'core'
p331
S'arduino'
p332
sS'mcu'
p333
S'atmega1280'
p334
sS'f_cpu'
p335
S'16000000L'
p336
sS'variant'
p337
S'mega'
p338
ssS'name'
p339
S'Arduino Mega (ATmega1280)'
p340
sS'upload'
p341
(dp342
S'protocol'
p343
S'arduino'
p344
sS'maximum_size'
p345
S'126976'
p346
sS'speed'
p347
S'57600'
p348
ssaa(lp349
S'leonardo'
p350
a(dp351
g71
S'/usr/share/arduino/hardware/arduino'
p352
sS'bootloader'
p353
(dp354
S'extended_fuses'
p355
S'0xcb'
p356
sS'high_fuses'
p357
S'0xd8'
p358
sS'low_fuses'
p359
S'0xff'
p360
sS'lock_bits'
p361
S'0x2F'
p362
sS'file'
p363
S'Caterina-Leonardo.hex'
p364
sS'path'
p365
S'caterina'
p366
sS'unlock_bits'
p367
S'0x3F'
p368
ssS'build'
p369
(dp370
S'core'
p371
S'arduino'
p372
sS'f_cpu'
p373
S'16000000L'
p374
sS'vid'
p375
S'0x2341'
p376
sS'pid'
p377
S'0x8036'
p378
sS'variant'
p379
S'leonardo'
p380
sS'mcu'
p381
S'atmega32u4'
p382
ssS'name'
p383
S'Arduino Leonardo'
p384
sS'upload'
p385
(dp386
S'protocol'
p387
S'avr109'
p388
sS'maximum_size'
p389
S'28672'
p390
sS'speed'
p391
S'57600'
p392
sS'disable_flushing'
p393
S'true'
p394
ssaa(lp395
S'mini328'
p396
a(dp397
g71
S'/usr/share/arduino/hardware/arduino'
p398
sS'bootloader'
p399
(dp400
S'extended_fuses'
p401
S'0x05'
p402
sS'high_fuses'
p403
S'0xd8'
p404
sS'low_fuses'
p405
S'0xff'
p406
sS'lock_bits'
p407
S'0x0F'
p408
sS'file'
p409
S'optiboot_atmega328-Mini.hex'
p410
sS'path'
p411
S'optiboot'
p412
sS'unlock_bits'
p413
S'0x3F'
p414
ssS'build'
p415
(dp416
S'core'
p417
S'arduino'
p418
sS'mcu'
p419
S'atmega328p'
p420
sS'f_cpu'
p421
S'16000000L'
p422
sS'variant'
p423
S'eightanaloginputs'
p424
ssS'name'
p425
S'Arduino Mini w/ ATmega328'
p426
sS'upload'
p427
(dp428
S'protocol'
p429
S'arduino'
p430
sS'maximum_size'
p431
S'28672'
p432
sS'speed'
p433
S'115200'
p434
ssaa(lp435
S'mini'
p436
a(dp437
g71
S'/usr/share/arduino/hardware/arduino'
p438
sS'bootloader'
p439
(dp440
S'extended_fuses'
p441
S'0x00'
p442
sS'high_fuses'
p443
S'0xdd'
p444
sS'low_fuses'
p445
S'0xff'
p446
sS'lock_bits'
p447
S'0x0F'
p448
sS'file'
p449
S'ATmegaBOOT_168_ng.hex'
p450
sS'path'
p451
S'atmega'
p452
sS'unlock_bits'
p453
S'0x3F'
p454
ssS'build'
p455
(dp456
S'core'
p457
S'arduino'
p458
sS'mcu'
p459
S'atmega168'
p460
sS'f_cpu'
p461
S'16000000L'
p462
sS'variant'
p463
S'eightanaloginputs'
p464
ssS'name'
p465
S'Arduino Mini w/ ATmega168'
p466
sS'upload'
p467
(dp468
S'protocol'
p469
S'arduino'
p470
sS'maximum_size'
p471
S'14336'
p472
sS'speed'
p473
S'19200'
p474
ssaa(lp475
S'ethernet'
p476
a(dp477
g71
S'/usr/share/arduino/hardware/arduino'
p478
sS'bootloader'
p479
(dp480
S'extended_fuses'
p481
S'0x05'
p482
sS'high_fuses'
p483
S'0xde'
p484
sS'low_fuses'
p485
S'0xff'
p486
sS'lock_bits'
p487
S'0x0F'
p488
sS'file'
p489
S'optiboot_atmega328.hex'
p490
sS'path'
p491
S'optiboot'
p492
sS'unlock_bits'
p493
S'0x3F'
p494
ssS'build'
p495
(dp496
S'variant'
p497
S'standard'
p498
sS'mcu'
p499
S'atmega328p'
p500
sS'f_cpu'
p501
S'16000000L'
p502
sS'core'
p503
S'arduino'
p504
ssS'name'
p505
S'Arduino Ethernet'
p506
sS'upload'
p507
(dp508
S'protocol'
p509
S'arduino'
p510
sS'maximum_size'
p511
S'32256'
p512
sS'speed'
p513
S'115200'
p514
ssaa(lp515
S'fio'
p516
a(dp517
g71
S'/usr/share/arduino/hardware/arduino'
p518
sS'bootloader'
p519
(dp520
S'extended_fuses'
p521
S'0x05'
p522
sS'high_fuses'
p523
S'0xDA'
p524
sS'low_fuses'
p525
S'0xFF'
p526
sS'lock_bits'
p527
S'0x0F'
p528
sS'file'
p529
S'ATmegaBOOT_168_atmega328_pro_8MHz.hex'
p530
sS'path'
p531
S'arduino:atmega'
p532
sS'unlock_bits'
p533
S'0x3F'
p534
ssS'build'
p535
(dp536
S'core'
p537
S'arduino'
p538
sS'mcu'
p539
S'atmega328p'
p540
sS'f_cpu'
p541
S'8000000L'
p542
sS'variant'
p543
S'eightanaloginputs'
p544
ssS'name'
p545
S'Arduino Fio'
p546
sS'upload'
p547
(dp548
S'protocol'
p549
S'arduino'
p550
sS'maximum_size'
p551
S'30720'
p552
sS'speed'
p553
S'57600'
p554
ssaa(lp555
S'bt328'
p556
a(dp557
g71
S'/usr/share/arduino/hardware/arduino'
p558
sS'bootloader'
p559
(dp560
S'extended_fuses'
p561
S'0x05'
p562
sS'high_fuses'
p563
S'0xd8'
p564
sS'low_fuses'
p565
S'0xff'
p566
sS'lock_bits'
p567
S'0x0F'
p568
sS'file'
p569
S'ATmegaBOOT_168_atmega328_bt.hex'
p570
sS'path'
p571
S'bt'
p572
sS'unlock_bits'
p573
S'0x3F'
p574
ssS'build'
p575
(dp576
S'core'
p577
S'arduino'
p578
sS'mcu'
p579
S'atmega328p'
p580
sS'f_cpu'
p581
S'16000000L'
p582
sS'variant'
p583
S'eightanaloginputs'
p584
ssS'name'
p585
S'Arduino BT w/ ATmega328'
p586
sS'upload'
p587
(dp588
S'protocol'
p589
S'arduino'
p590
sS'maximum_size'
p591
S'28672'
p592
sS'speed'
p593
S'19200'
p594
sS'disable_flushing'
p595
S'true'
p596
ssaa(lp597
S'bt'
p598
a(dp599
g71
S'/usr/share/arduino/hardware/arduino'
p600
sS'bootloader'
p601
(dp602
S'extended_fuses'
p603
S'0x00'
p604
sS'high_fuses'
p605
S'0xdd'
p606
sS'low_fuses'
p607
S'0xff'
p608
sS'lock_bits'
p609
S'0x0F'
p610
sS'file'
p611
S'ATmegaBOOT_168.hex'
p612
sS'path'
p613
S'bt'
p614
sS'unlock_bits'
p615
S'0x3F'
p616
ssS'build'
p617
(dp618
S'core'
p619
S'arduino'
p620
sS'mcu'
p621
S'atmega168'
p622
sS'f_cpu'
p623
S'16000000L'
p624
sS'variant'
p625
S'eightanaloginputs'
p626
ssS'name'
p627
S'Arduino BT w/ ATmega168'
p628
sS'upload'
p629
(dp630
S'protocol'
p631
S'arduino'
p632
sS'maximum_size'
p633
S'14336'
p634
sS'speed'
p635
S'19200'
p636
sS'disable_flushing'
p637
S'true'
p638
ssaa(lp639
S'lilypad328'
p640
a(dp641
g71
S'/usr/share/arduino/hardware/arduino'
p642
sS'bootloader'
p643
(dp644
S'extended_fuses'
p645
S'0x05'
p646
sS'high_fuses'
p647
S'0xDA'
p648
sS'low_fuses'
p649
S'0xFF'
p650
sS'lock_bits'
p651
S'0x0F'
p652
sS'file'
p653
S'ATmegaBOOT_168_atmega328_pro_8MHz.hex'
p654
sS'path'
p655
S'atmega'
p656
sS'unlock_bits'
p657
S'0x3F'
p658
ssS'build'
p659
(dp660
S'core'
p661
S'arduino'
p662
sS'mcu'
p663
S'atmega328p'
p664
sS'f_cpu'
p665
S'8000000L'
p666
sS'variant'
p667
S'standard'
p668
ssS'name'
p669
S'LilyPad Arduino w/ ATmega328'
p670
sS'upload'
p671
(dp672
S'protocol'
p673
S'arduino'
p674
sS'maximum_size'
p675
S'30720'
p676
sS'speed'
p677
S'57600'
p678
ssaa(lp679
S'lilypad'
p680
a(dp681
g71
S'/usr/share/arduino/hardware/arduino'
p682
sS'bootloader'
p683
(dp684
S'extended_fuses'
p685
S'0x00'
p686
sS'high_fuses'
p687
S'0xdd'
p688
sS'low_fuses'
p689
S'0xe2'
p690
sS'lock_bits'
p691
S'0x0F'
p692
sS'file'
p693
S'LilyPadBOOT_168.hex'
p694
sS'path'
p695
S'lilypad'
p696
sS'unlock_bits'
p697
S'0x3F'
p698
ssS'build'
p699
(dp700
S'core'
p701
S'arduino'
p702
sS'mcu'
p703
S'atmega168'
p704
sS'f_cpu'
p705
S'8000000L'
p706
sS'variant'
p707
S'standard'
p708
ssS'name'
p709
S'LilyPad Arduino w/ ATmega168'
p710
sS'upload'
p711
(dp712
S'protocol'
p713
S'arduino'
p714
sS'maximum_size'
p715
S'14336'
p716
sS'speed'
p717
S'19200'
p718
ssaa(lp719
S'pro5v328'
p720
a(dp721
g71
S'/usr/share/arduino/hardware/arduino'
p722
sS'bootloader'
p723
(dp724
S'extended_fuses'
p725
S'0x05'
p726
sS'high_fuses'
p727
S'0xDA'
p728
sS'low_fuses'
p729
S'0xFF'
p730
sS'lock_bits'
p731
S'0x0F'
p732
sS'file'
p733
S'ATmegaBOOT_168_atmega328.hex'
p734
sS'path'
p735
S'atmega'
p736
sS'unlock_bits'
p737
S'0x3F'
p738
ssS'build'
p739
(dp740
S'core'
p741
S'arduino'
p742
sS'mcu'
p743
S'atmega328p'
p744
sS'f_cpu'
p745
S'16000000L'
p746
sS'variant'
p747
S'standard'
p748
ssS'name'
p749
S'Arduino Pro or Pro Mini (5V, 16 MHz) w/ ATmega328'
p750
sS'upload'
p751
(dp752
S'protocol'
p753
S'arduino'
p754
sS'maximum_size'
p755
S'30720'
p756
sS'speed'
p757
S'57600'
p758
ssaa(lp759
S'pro5v'
p760
a(dp761
g71
S'/usr/share/arduino/hardware/arduino'
p762
sS'bootloader'
p763
(dp764
S'extended_fuses'
p765
S'0x00'
p766
sS'high_fuses'
p767
S'0xdd'
p768
sS'low_fuses'
p769
S'0xff'
p770
sS'lock_bits'
p771
S'0x0F'
p772
sS'file'
p773
S'ATmegaBOOT_168_diecimila.hex'
p774
sS'path'
p775
S'atmega'
p776
sS'unlock_bits'
p777
S'0x3F'
p778
ssS'build'
p779
(dp780
S'core'
p781
S'arduino'
p782
sS'mcu'
p783
S'atmega168'
p784
sS'f_cpu'
p785
S'16000000L'
p786
sS'variant'
p787
S'standard'
p788
ssS'name'
p789
S'Arduino Pro or Pro Mini (5V, 16 MHz) w/ ATmega168'
p790
sS'upload'
p791
(dp792
S'protocol'
p793
S'arduino'
p794
sS'maximum_size'
p795
S'14336'
p796
sS'speed'
p797
S'19200'
p798
ssaa(lp799
S'pro328'
p800
a(dp801
g71
S'/usr/share/arduino/hardware/arduino'
p802
sS'bootloader'
p803
(dp804
S'extended_fuses'
p805
S'0x05'
p806
sS'high_fuses'
p807
S'0xDA'
p808
sS'low_fuses'
p809
S'0xFF'
p810
sS'lock_bits'
p811
S'0x0F'
p812
sS'file'
p813
S'ATmegaBOOT_168_atmega328_pro_8MHz.hex'
p814
sS'path'
p815
S'atmega'
p816
sS'unlock_bits'
p817
S'0x3F'
p818
ssS'build'
p819
(dp820
S'core'
p821
S'arduino'
p822
sS'mcu'
p823
S'atmega328p'
p824
sS'f_cpu'
p825
S'8000000L'
p826
sS'variant'
p827
S'standard'
p828
ssS'name'
p829
S'Arduino Pro or Pro Mini (3.3V, 8 MHz) w/ ATmega328'
p830
sS'upload'
p831
(dp832
S'protocol'
p833
S'arduino'
p834
sS'maximum_size'
p835
S'30720'
p836
sS'speed'
p837
S'57600'
p838
ssaa(lp839
S'pro'
p840
a(dp841
g71
S'/usr/share/arduino/hardware/arduino'
p842
sS'bootloader'
p843
(dp844
S'extended_fuses'
p845
S'0x00'
p846
sS'high_fuses'
p847
S'0xdd'
p848
sS'low_fuses'
p849
S'0xc6'
p850
sS'lock_bits'
p851
S'0x0F'
p852
sS'file'
p853
S'ATmegaBOOT_168_pro_8MHz.hex'
p854
sS'path'
p855
S'atmega'
p856
sS'unlock_bits'
p857
S'0x3F'
p858
ssS'build'
p859
(dp860
S'core'
p861
S'arduino'
p862
sS'mcu'
p863
S'atmega168'
p864
sS'f_cpu'
p865
S'8000000L'
p866
sS'variant'
p867
S'standard'
p868
ssS'name'
p869
S'Arduino Pro or Pro Mini (3.3V, 8 MHz) w/ ATmega168'
p870
sS'upload'
p871
(dp872
S'protocol'
p873
S'arduino'
p874
sS'maximum_size'
p875
S'14336'
p876
sS'speed'
p877
S'19200'
p878
ssaa(lp879
S'atmega168'
p880
a(dp881
g71
S'/usr/share/arduino/hardware/arduino'
p882
sS'bootloader'
p883
(dp884
S'extended_fuses'
p885
S'0x00'
p886
sS'high_fuses'
p887
S'0xdd'
p888
sS'low_fuses'
p889
S'0xff'
p890
sS'lock_bits'
p891
S'0x0F'
p892
sS'file'
p893
S'ATmegaBOOT_168_ng.hex'
p894
sS'path'
p895
S'atmega'
p896
sS'unlock_bits'
p897
S'0x3F'
p898
ssS'build'
p899
(dp900
S'core'
p901
S'arduino'
p902
sS'mcu'
p903
S'atmega168'
p904
sS'f_cpu'
p905
S'16000000L'
p906
sS'variant'
p907
S'standard'
p908
ssS'name'
p909
S'Arduino NG or older w/ ATmega168'
p910
sS'upload'
p911
(dp912
S'protocol'
p913
S'arduino'
p914
sS'maximum_size'
p915
S'14336'
p916
sS'speed'
p917
S'19200'
p918
ssaa(lp919
S'atmega8'
p920
a(dp921
g71
S'/usr/share/arduino/hardware/arduino'
p922
sS'bootloader'
p923
(dp924
S'high_fuses'
p925
S'0xca'
p926
sS'low_fuses'
p927
S'0xdf'
p928
sS'lock_bits'
p929
S'0x0F'
p930
sS'file'
p931
S'ATmegaBOOT.hex'
p932
sS'path'
p933
S'atmega8'
p934
sS'unlock_bits'
p935
S'0x3F'
p936
ssS'build'
p937
(dp938
S'core'
p939
S'arduino'
p940
sS'mcu'
p941
S'atmega8'
p942
sS'f_cpu'
p943
S'16000000L'
p944
sS'variant'
p945
S'standard'
p946
ssS'name'
p947
S'Arduino NG or older w/ ATmega8'
p948
sS'upload'
p949
(dp950
S'protocol'
p951
S'arduino'
p952
sS'maximum_size'
p953
S'7168'
p954
sS'speed'
p955
S'19200'
p956
ssaatp957
Rp958
(dp959
S'default'
p960
S'uno'
p961
sbtp962
a(S'used_libs'
p963
(lp964
S'lib/TSL2561'
p965
aS'lib/NewPing'
p966
aS'/usr/share/arduino/libraries/Wire'
p967
aS'/usr/share/arduino/hardware/arduino/cores/arduino'
p968
atp969
a(S'make'
p970
S'/usr/bin/make'
p971
tp972
a(S'build_dir'
p973
S'.build/uno'
p974
tp975
a(S'cc'
p976
S'/usr/bin/avr-gcc'
p977
tp978
a(S'cflags'
p979
g2
(g3
g4
(lp980
tp981
Rp982
tp983
a(S'cxxflags'
p984
g2
(g3
g4
(lp985
S'-fno-exceptions'
p986
atp987
Rp988
tp989
a(S'arduino_variants_dir'
p990
S'/usr/share/arduino/hardware/arduino/variants'
p991
tp992
a(S'serial'
p993
S'/usr/bin/picocom'
p994
tp995
a(S'stty'
p996
S'/bin/stty'
p997
tp998
a(S'version.txt'
p999
S'/usr/share/arduino/lib/version.txt'
p1000
tp1001
a(S'arduino_core_dir'
p1002
g968
tp1003
a(S'boards.txt'
p1004
(lp1005
S'/usr/share/arduino/hardware/arduino/boards.txt'
p1006
atp1007
a(S'avrdude.conf'
p1008
S'/usr/share/arduino/hardware/tools/avrdude.conf'
p1009
tp1010
a(S'deps'
p1011
g2
(g3
g4
(lp1012
S'.build/uno/src/dependencies.d'
p1013
aS'.build/uno/NewPing/dependencies.d'
p1014
aS'.build/uno/Wire/dependencies.d'
p1015
aS'.build/uno/TSL2561/dependencies.d'
p1016
aS'.build/uno/arduino/dependencies.d'
p1017
atp1018
Rp1019
tp1020
a.