(lp0
(S'cppflags'
p1
ccopy_reg
_reconstructor
p2
(cino.utils
SpaceList
p3
c__builtin__
list
p4
(lp5
S'-mmcu=atmega328p'
p6
aS'-DF_CPU=16000000L'
p7
aS'-DARDUINO=101'
p8
aS'-I/usr/share/arduino/hardware/arduino/cores/arduino'
p9
aS'-ffunction-sections'
p10
aS'-fdata-sections'
p11
aS'-g'
p12
aS'-Os'
p13
aS'-w'
p14
aS'-I/usr/share/arduino/hardware/arduino/variants/standard'
p15
aS'-Ilib/TSL2561'
p16
aS'-Ilib/NewPing'
p17
aS'-I/usr/share/arduino/libraries/Wire'
p18
aS'-I/usr/share/arduino/libraries/Wire/utility'
p19
aS'-I/usr/share/arduino/hardware/arduino/cores/arduino'
p20
atp21
Rp22
tp23
a(S'cxx'
p24
S'/usr/bin/avr-g++'
p25
tp26
a(S'arduino_libraries_dir'
p27
S'/usr/share/arduino/libraries'
p28
tp29
a(S'avrdude'
p30
S'/usr/share/arduino/hardware/tools/avrdude'
p31
tp32
a(S'ar'
p33
S'/usr/bin/avr-ar'
p34
tp35
a(S'names'
p36
(dp37
S'cpp'
p38
S'%s.cpp'
p39
sS'obj'
p40
S'%s.o'
p41
sS'lib'
p42
S'lib%s.a'
p43
sS'deps'
p44
S'%s.d'
p45
stp46
a(S'ldflags'
p47
g2
(g3
g4
(lp48
g6
aS'-Wl,-Os'
p49
aS'-Wl,--gc-sections'
p50
atp51
Rp52
tp53
a(S'arduino_lib_version'
p54
g2
(cino.environment
Version
p55
c__builtin__
tuple
p56
(I1
I0
I1
tp57
tp58
Rp59
tp60
a(S'objcopy'
p61
S'/usr/bin/avr-objcopy'
p62
tp63
a(S'board_models'
p64
cino.environment
BoardModels
p65
((lp66
(lp67
S'uno'
p68
a(dp69
S'_coredir'
p70
S'/usr/share/arduino/hardware/arduino'
p71
sS'bootloader'
p72
(dp73
S'extended_fuses'
p74
S'0x05'
p75
sS'high_fuses'
p76
S'0xde'
p77
sS'low_fuses'
p78
S'0xff'
p79
sS'lock_bits'
p80
S'0x0F'
p81
sS'file'
p82
S'optiboot_atmega328.hex'
p83
sS'path'
p84
S'optiboot'
p85
sS'unlock_bits'
p86
S'0x3F'
p87
ssS'upload'
p88
(dp89
S'protocol'
p90
S'arduino'
p91
sS'maximum_size'
p92
S'32256'
p93
sS'speed'
p94
S'115200'
p95
ssS'name'
p96
S'Arduino Uno'
p97
sS'build'
p98
(dp99
S'core'
p100
S'arduino'
p101
sS'mcu'
p102
S'atmega328p'
p103
sS'f_cpu'
p104
S'16000000L'
p105
sS'variant'
p106
S'standard'
p107
ssaa(lp108
S'atmega328'
p109
a(dp110
g70
S'/usr/share/arduino/hardware/arduino'
p111
sS'bootloader'
p112
(dp113
S'extended_fuses'
p114
S'0x05'
p115
sS'high_fuses'
p116
S'0xDA'
p117
sS'low_fuses'
p118
S'0xFF'
p119
sS'lock_bits'
p120
S'0x0F'
p121
sS'file'
p122
S'ATmegaBOOT_168_atmega328.hex'
p123
sS'path'
p124
S'atmega'
p125
sS'unlock_bits'
p126
S'0x3F'
p127
ssS'upload'
p128
(dp129
S'protocol'
p130
S'arduino'
p131
sS'maximum_size'
p132
S'30720'
p133
sS'speed'
p134
S'57600'
p135
ssS'name'
p136
S'Arduino Duemilanove w/ ATmega328'
p137
sS'build'
p138
(dp139
S'core'
p140
S'arduino'
p141
sS'mcu'
p142
S'atmega328p'
p143
sS'f_cpu'
p144
S'16000000L'
p145
sS'variant'
p146
S'standard'
p147
ssaa(lp148
S'diecimila'
p149
a(dp150
g70
S'/usr/share/arduino/hardware/arduino'
p151
sS'bootloader'
p152
(dp153
S'extended_fuses'
p154
S'0x00'
p155
sS'high_fuses'
p156
S'0xdd'
p157
sS'low_fuses'
p158
S'0xff'
p159
sS'lock_bits'
p160
S'0x0F'
p161
sS'file'
p162
S'ATmegaBOOT_168_diecimila.hex'
p163
sS'path'
p164
S'atmega'
p165
sS'unlock_bits'
p166
S'0x3F'
p167
ssS'upload'
p168
(dp169
S'protocol'
p170
S'arduino'
p171
sS'maximum_size'
p172
S'14336'
p173
sS'speed'
p174
S'19200'
p175
ssS'name'
p176
S'Arduino Diecimila or Duemilanove w/ ATmega168'
p177
sS'build'
p178
(dp179
S'core'
p180
S'arduino'
p181
sS'mcu'
p182
S'atmega168'
p183
sS'f_cpu'
p184
S'16000000L'
p185
sS'variant'
p186
S'standard'
p187
ssaa(lp188
S'nano328'
p189
a(dp190
g70
S'/usr/share/arduino/hardware/arduino'
p191
sS'bootloader'
p192
(dp193
S'extended_fuses'
p194
S'0x05'
p195
sS'high_fuses'
p196
S'0xDA'
p197
sS'low_fuses'
p198
S'0xFF'
p199
sS'lock_bits'
p200
S'0x0F'
p201
sS'file'
p202
S'ATmegaBOOT_168_atmega328.hex'
p203
sS'path'
p204
S'atmega'
p205
sS'unlock_bits'
p206
S'0x3F'
p207
ssS'upload'
p208
(dp209
S'protocol'
p210
S'arduino'
p211
sS'maximum_size'
p212
S'30720'
p213
sS'speed'
p214
S'57600'
p215
ssS'name'
p216
S'Arduino Nano w/ ATmega328'
p217
sS'build'
p218
(dp219
S'core'
p220
S'arduino'
p221
sS'mcu'
p222
S'atmega328p'
p223
sS'f_cpu'
p224
S'16000000L'
p225
sS'variant'
p226
S'eightanaloginputs'
p227
ssaa(lp228
S'nano'
p229
a(dp230
g70
S'/usr/share/arduino/hardware/arduino'
p231
sS'bootloader'
p232
(dp233
S'extended_fuses'
p234
S'0x00'
p235
sS'high_fuses'
p236
S'0xdd'
p237
sS'low_fuses'
p238
S'0xff'
p239
sS'lock_bits'
p240
S'0x0F'
p241
sS'file'
p242
S'ATmegaBOOT_168_diecimila.hex'
p243
sS'path'
p244
S'atmega'
p245
sS'unlock_bits'
p246
S'0x3F'
p247
ssS'upload'
p248
(dp249
S'protocol'
p250
S'arduino'
p251
sS'maximum_size'
p252
S'14336'
p253
sS'speed'
p254
S'19200'
p255
ssS'name'
p256
S'Arduino Nano w/ ATmega168'
p257
sS'build'
p258
(dp259
S'core'
p260
S'arduino'
p261
sS'mcu'
p262
S'atmega168'
p263
sS'f_cpu'
p264
S'16000000L'
p265
sS'variant'
p266
S'eightanaloginputs'
p267
ssaa(lp268
S'mega2560'
p269
a(dp270
g70
S'/usr/share/arduino/hardware/arduino'
p271
sS'bootloader'
p272
(dp273
S'extended_fuses'
p274
S'0xFD'
p275
sS'high_fuses'
p276
S'0xD8'
p277
sS'low_fuses'
p278
S'0xFF'
p279
sS'lock_bits'
p280
S'0x0F'
p281
sS'file'
p282
S'stk500boot_v2_mega2560.hex'
p283
sS'path'
p284
S'stk500v2'
p285
sS'unlock_bits'
p286
S'0x3F'
p287
ssS'upload'
p288
(dp289
S'protocol'
p290
S'stk500v2'
p291
sS'maximum_size'
p292
S'258048'
p293
sS'speed'
p294
S'115200'
p295
ssS'name'
p296
S'Arduino Mega 2560 or Mega ADK'
p297
sS'build'
p298
(dp299
S'core'
p300
S'arduino'
p301
sS'mcu'
p302
S'atmega2560'
p303
sS'f_cpu'
p304
S'16000000L'
p305
sS'variant'
p306
S'mega'
p307
ssaa(lp308
S'mega'
p309
a(dp310
g70
S'/usr/share/arduino/hardware/arduino'
p311
sS'bootloader'
p312
(dp313
S'extended_fuses'
p314
S'0xF5'
p315
sS'high_fuses'
p316
S'0xDA'
p317
sS'low_fuses'
p318
S'0xFF'
p319
sS'lock_bits'
p320
S'0x0F'
p321
sS'file'
p322
S'ATmegaBOOT_168_atmega1280.hex'
p323
sS'path'
p324
S'atmega'
p325
sS'unlock_bits'
p326
S'0x3F'
p327
ssS'upload'
p328
(dp329
S'protocol'
p330
S'arduino'
p331
sS'maximum_size'
p332
S'126976'
p333
sS'speed'
p334
S'57600'
p335
ssS'name'
p336
S'Arduino Mega (ATmega1280)'
p337
sS'build'
p338
(dp339
S'core'
p340
S'arduino'
p341
sS'mcu'
p342
S'atmega1280'
p343
sS'f_cpu'
p344
S'16000000L'
p345
sS'variant'
p346
S'mega'
p347
ssaa(lp348
S'leonardo'
p349
a(dp350
g70
S'/usr/share/arduino/hardware/arduino'
p351
sS'bootloader'
p352
(dp353
S'extended_fuses'
p354
S'0xcb'
p355
sS'high_fuses'
p356
S'0xd8'
p357
sS'low_fuses'
p358
S'0xff'
p359
sS'lock_bits'
p360
S'0x2F'
p361
sS'file'
p362
S'Caterina-Leonardo.hex'
p363
sS'path'
p364
S'caterina'
p365
sS'unlock_bits'
p366
S'0x3F'
p367
ssS'upload'
p368
(dp369
S'protocol'
p370
S'avr109'
p371
sS'maximum_size'
p372
S'28672'
p373
sS'speed'
p374
S'57600'
p375
sS'disable_flushing'
p376
S'true'
p377
ssS'name'
p378
S'Arduino Leonardo'
p379
sS'build'
p380
(dp381
S'core'
p382
S'arduino'
p383
sS'f_cpu'
p384
S'16000000L'
p385
sS'vid'
p386
S'0x2341'
p387
sS'pid'
p388
S'0x8036'
p389
sS'variant'
p390
S'leonardo'
p391
sS'mcu'
p392
S'atmega32u4'
p393
ssaa(lp394
S'mini328'
p395
a(dp396
g70
S'/usr/share/arduino/hardware/arduino'
p397
sS'bootloader'
p398
(dp399
S'extended_fuses'
p400
S'0x05'
p401
sS'high_fuses'
p402
S'0xd8'
p403
sS'low_fuses'
p404
S'0xff'
p405
sS'lock_bits'
p406
S'0x0F'
p407
sS'file'
p408
S'optiboot_atmega328-Mini.hex'
p409
sS'path'
p410
S'optiboot'
p411
sS'unlock_bits'
p412
S'0x3F'
p413
ssS'upload'
p414
(dp415
S'protocol'
p416
S'arduino'
p417
sS'maximum_size'
p418
S'28672'
p419
sS'speed'
p420
S'115200'
p421
ssS'name'
p422
S'Arduino Mini w/ ATmega328'
p423
sS'build'
p424
(dp425
S'core'
p426
S'arduino'
p427
sS'mcu'
p428
S'atmega328p'
p429
sS'f_cpu'
p430
S'16000000L'
p431
sS'variant'
p432
S'eightanaloginputs'
p433
ssaa(lp434
S'mini'
p435
a(dp436
g70
S'/usr/share/arduino/hardware/arduino'
p437
sS'bootloader'
p438
(dp439
S'extended_fuses'
p440
S'0x00'
p441
sS'high_fuses'
p442
S'0xdd'
p443
sS'low_fuses'
p444
S'0xff'
p445
sS'lock_bits'
p446
S'0x0F'
p447
sS'file'
p448
S'ATmegaBOOT_168_ng.hex'
p449
sS'path'
p450
S'atmega'
p451
sS'unlock_bits'
p452
S'0x3F'
p453
ssS'upload'
p454
(dp455
S'protocol'
p456
S'arduino'
p457
sS'maximum_size'
p458
S'14336'
p459
sS'speed'
p460
S'19200'
p461
ssS'name'
p462
S'Arduino Mini w/ ATmega168'
p463
sS'build'
p464
(dp465
S'core'
p466
S'arduino'
p467
sS'mcu'
p468
S'atmega168'
p469
sS'f_cpu'
p470
S'16000000L'
p471
sS'variant'
p472
S'eightanaloginputs'
p473
ssaa(lp474
S'ethernet'
p475
a(dp476
g70
S'/usr/share/arduino/hardware/arduino'
p477
sS'bootloader'
p478
(dp479
S'extended_fuses'
p480
S'0x05'
p481
sS'high_fuses'
p482
S'0xde'
p483
sS'low_fuses'
p484
S'0xff'
p485
sS'lock_bits'
p486
S'0x0F'
p487
sS'file'
p488
S'optiboot_atmega328.hex'
p489
sS'path'
p490
S'optiboot'
p491
sS'unlock_bits'
p492
S'0x3F'
p493
ssS'upload'
p494
(dp495
S'protocol'
p496
S'arduino'
p497
sS'maximum_size'
p498
S'32256'
p499
sS'speed'
p500
S'115200'
p501
ssS'name'
p502
S'Arduino Ethernet'
p503
sS'build'
p504
(dp505
S'variant'
p506
S'standard'
p507
sS'mcu'
p508
S'atmega328p'
p509
sS'f_cpu'
p510
S'16000000L'
p511
sS'core'
p512
S'arduino'
p513
ssaa(lp514
S'fio'
p515
a(dp516
g70
S'/usr/share/arduino/hardware/arduino'
p517
sS'bootloader'
p518
(dp519
S'extended_fuses'
p520
S'0x05'
p521
sS'high_fuses'
p522
S'0xDA'
p523
sS'low_fuses'
p524
S'0xFF'
p525
sS'lock_bits'
p526
S'0x0F'
p527
sS'file'
p528
S'ATmegaBOOT_168_atmega328_pro_8MHz.hex'
p529
sS'path'
p530
S'arduino:atmega'
p531
sS'unlock_bits'
p532
S'0x3F'
p533
ssS'upload'
p534
(dp535
S'protocol'
p536
S'arduino'
p537
sS'maximum_size'
p538
S'30720'
p539
sS'speed'
p540
S'57600'
p541
ssS'name'
p542
S'Arduino Fio'
p543
sS'build'
p544
(dp545
S'core'
p546
S'arduino'
p547
sS'mcu'
p548
S'atmega328p'
p549
sS'f_cpu'
p550
S'8000000L'
p551
sS'variant'
p552
S'eightanaloginputs'
p553
ssaa(lp554
S'bt328'
p555
a(dp556
g70
S'/usr/share/arduino/hardware/arduino'
p557
sS'bootloader'
p558
(dp559
S'extended_fuses'
p560
S'0x05'
p561
sS'high_fuses'
p562
S'0xd8'
p563
sS'low_fuses'
p564
S'0xff'
p565
sS'lock_bits'
p566
S'0x0F'
p567
sS'file'
p568
S'ATmegaBOOT_168_atmega328_bt.hex'
p569
sS'path'
p570
S'bt'
p571
sS'unlock_bits'
p572
S'0x3F'
p573
ssS'upload'
p574
(dp575
S'protocol'
p576
S'arduino'
p577
sS'maximum_size'
p578
S'28672'
p579
sS'speed'
p580
S'19200'
p581
sS'disable_flushing'
p582
S'true'
p583
ssS'name'
p584
S'Arduino BT w/ ATmega328'
p585
sS'build'
p586
(dp587
S'core'
p588
S'arduino'
p589
sS'mcu'
p590
S'atmega328p'
p591
sS'f_cpu'
p592
S'16000000L'
p593
sS'variant'
p594
S'eightanaloginputs'
p595
ssaa(lp596
S'bt'
p597
a(dp598
g70
S'/usr/share/arduino/hardware/arduino'
p599
sS'bootloader'
p600
(dp601
S'extended_fuses'
p602
S'0x00'
p603
sS'high_fuses'
p604
S'0xdd'
p605
sS'low_fuses'
p606
S'0xff'
p607
sS'lock_bits'
p608
S'0x0F'
p609
sS'file'
p610
S'ATmegaBOOT_168.hex'
p611
sS'path'
p612
S'bt'
p613
sS'unlock_bits'
p614
S'0x3F'
p615
ssS'upload'
p616
(dp617
S'protocol'
p618
S'arduino'
p619
sS'maximum_size'
p620
S'14336'
p621
sS'speed'
p622
S'19200'
p623
sS'disable_flushing'
p624
S'true'
p625
ssS'name'
p626
S'Arduino BT w/ ATmega168'
p627
sS'build'
p628
(dp629
S'core'
p630
S'arduino'
p631
sS'mcu'
p632
S'atmega168'
p633
sS'f_cpu'
p634
S'16000000L'
p635
sS'variant'
p636
S'eightanaloginputs'
p637
ssaa(lp638
S'lilypad328'
p639
a(dp640
g70
S'/usr/share/arduino/hardware/arduino'
p641
sS'bootloader'
p642
(dp643
S'extended_fuses'
p644
S'0x05'
p645
sS'high_fuses'
p646
S'0xDA'
p647
sS'low_fuses'
p648
S'0xFF'
p649
sS'lock_bits'
p650
S'0x0F'
p651
sS'file'
p652
S'ATmegaBOOT_168_atmega328_pro_8MHz.hex'
p653
sS'path'
p654
S'atmega'
p655
sS'unlock_bits'
p656
S'0x3F'
p657
ssS'upload'
p658
(dp659
S'protocol'
p660
S'arduino'
p661
sS'maximum_size'
p662
S'30720'
p663
sS'speed'
p664
S'57600'
p665
ssS'name'
p666
S'LilyPad Arduino w/ ATmega328'
p667
sS'build'
p668
(dp669
S'core'
p670
S'arduino'
p671
sS'mcu'
p672
S'atmega328p'
p673
sS'f_cpu'
p674
S'8000000L'
p675
sS'variant'
p676
S'standard'
p677
ssaa(lp678
S'lilypad'
p679
a(dp680
g70
S'/usr/share/arduino/hardware/arduino'
p681
sS'bootloader'
p682
(dp683
S'extended_fuses'
p684
S'0x00'
p685
sS'high_fuses'
p686
S'0xdd'
p687
sS'low_fuses'
p688
S'0xe2'
p689
sS'lock_bits'
p690
S'0x0F'
p691
sS'file'
p692
S'LilyPadBOOT_168.hex'
p693
sS'path'
p694
S'lilypad'
p695
sS'unlock_bits'
p696
S'0x3F'
p697
ssS'upload'
p698
(dp699
S'protocol'
p700
S'arduino'
p701
sS'maximum_size'
p702
S'14336'
p703
sS'speed'
p704
S'19200'
p705
ssS'name'
p706
S'LilyPad Arduino w/ ATmega168'
p707
sS'build'
p708
(dp709
S'core'
p710
S'arduino'
p711
sS'mcu'
p712
S'atmega168'
p713
sS'f_cpu'
p714
S'8000000L'
p715
sS'variant'
p716
S'standard'
p717
ssaa(lp718
S'pro5v328'
p719
a(dp720
g70
S'/usr/share/arduino/hardware/arduino'
p721
sS'bootloader'
p722
(dp723
S'extended_fuses'
p724
S'0x05'
p725
sS'high_fuses'
p726
S'0xDA'
p727
sS'low_fuses'
p728
S'0xFF'
p729
sS'lock_bits'
p730
S'0x0F'
p731
sS'file'
p732
S'ATmegaBOOT_168_atmega328.hex'
p733
sS'path'
p734
S'atmega'
p735
sS'unlock_bits'
p736
S'0x3F'
p737
ssS'upload'
p738
(dp739
S'protocol'
p740
S'arduino'
p741
sS'maximum_size'
p742
S'30720'
p743
sS'speed'
p744
S'57600'
p745
ssS'name'
p746
S'Arduino Pro or Pro Mini (5V, 16 MHz) w/ ATmega328'
p747
sS'build'
p748
(dp749
S'core'
p750
S'arduino'
p751
sS'mcu'
p752
S'atmega328p'
p753
sS'f_cpu'
p754
S'16000000L'
p755
sS'variant'
p756
S'standard'
p757
ssaa(lp758
S'pro5v'
p759
a(dp760
g70
S'/usr/share/arduino/hardware/arduino'
p761
sS'bootloader'
p762
(dp763
S'extended_fuses'
p764
S'0x00'
p765
sS'high_fuses'
p766
S'0xdd'
p767
sS'low_fuses'
p768
S'0xff'
p769
sS'lock_bits'
p770
S'0x0F'
p771
sS'file'
p772
S'ATmegaBOOT_168_diecimila.hex'
p773
sS'path'
p774
S'atmega'
p775
sS'unlock_bits'
p776
S'0x3F'
p777
ssS'upload'
p778
(dp779
S'protocol'
p780
S'arduino'
p781
sS'maximum_size'
p782
S'14336'
p783
sS'speed'
p784
S'19200'
p785
ssS'name'
p786
S'Arduino Pro or Pro Mini (5V, 16 MHz) w/ ATmega168'
p787
sS'build'
p788
(dp789
S'core'
p790
S'arduino'
p791
sS'mcu'
p792
S'atmega168'
p793
sS'f_cpu'
p794
S'16000000L'
p795
sS'variant'
p796
S'standard'
p797
ssaa(lp798
S'pro328'
p799
a(dp800
g70
S'/usr/share/arduino/hardware/arduino'
p801
sS'bootloader'
p802
(dp803
S'extended_fuses'
p804
S'0x05'
p805
sS'high_fuses'
p806
S'0xDA'
p807
sS'low_fuses'
p808
S'0xFF'
p809
sS'lock_bits'
p810
S'0x0F'
p811
sS'file'
p812
S'ATmegaBOOT_168_atmega328_pro_8MHz.hex'
p813
sS'path'
p814
S'atmega'
p815
sS'unlock_bits'
p816
S'0x3F'
p817
ssS'upload'
p818
(dp819
S'protocol'
p820
S'arduino'
p821
sS'maximum_size'
p822
S'30720'
p823
sS'speed'
p824
S'57600'
p825
ssS'name'
p826
S'Arduino Pro or Pro Mini (3.3V, 8 MHz) w/ ATmega328'
p827
sS'build'
p828
(dp829
S'core'
p830
S'arduino'
p831
sS'mcu'
p832
S'atmega328p'
p833
sS'f_cpu'
p834
S'8000000L'
p835
sS'variant'
p836
S'standard'
p837
ssaa(lp838
S'pro'
p839
a(dp840
g70
S'/usr/share/arduino/hardware/arduino'
p841
sS'bootloader'
p842
(dp843
S'extended_fuses'
p844
S'0x00'
p845
sS'high_fuses'
p846
S'0xdd'
p847
sS'low_fuses'
p848
S'0xc6'
p849
sS'lock_bits'
p850
S'0x0F'
p851
sS'file'
p852
S'ATmegaBOOT_168_pro_8MHz.hex'
p853
sS'path'
p854
S'atmega'
p855
sS'unlock_bits'
p856
S'0x3F'
p857
ssS'upload'
p858
(dp859
S'protocol'
p860
S'arduino'
p861
sS'maximum_size'
p862
S'14336'
p863
sS'speed'
p864
S'19200'
p865
ssS'name'
p866
S'Arduino Pro or Pro Mini (3.3V, 8 MHz) w/ ATmega168'
p867
sS'build'
p868
(dp869
S'core'
p870
S'arduino'
p871
sS'mcu'
p872
S'atmega168'
p873
sS'f_cpu'
p874
S'8000000L'
p875
sS'variant'
p876
S'standard'
p877
ssaa(lp878
S'atmega168'
p879
a(dp880
g70
S'/usr/share/arduino/hardware/arduino'
p881
sS'bootloader'
p882
(dp883
S'extended_fuses'
p884
S'0x00'
p885
sS'high_fuses'
p886
S'0xdd'
p887
sS'low_fuses'
p888
S'0xff'
p889
sS'lock_bits'
p890
S'0x0F'
p891
sS'file'
p892
S'ATmegaBOOT_168_ng.hex'
p893
sS'path'
p894
S'atmega'
p895
sS'unlock_bits'
p896
S'0x3F'
p897
ssS'upload'
p898
(dp899
S'protocol'
p900
S'arduino'
p901
sS'maximum_size'
p902
S'14336'
p903
sS'speed'
p904
S'19200'
p905
ssS'name'
p906
S'Arduino NG or older w/ ATmega168'
p907
sS'build'
p908
(dp909
S'core'
p910
S'arduino'
p911
sS'mcu'
p912
S'atmega168'
p913
sS'f_cpu'
p914
S'16000000L'
p915
sS'variant'
p916
S'standard'
p917
ssaa(lp918
S'atmega8'
p919
a(dp920
g70
S'/usr/share/arduino/hardware/arduino'
p921
sS'bootloader'
p922
(dp923
S'high_fuses'
p924
S'0xca'
p925
sS'low_fuses'
p926
S'0xdf'
p927
sS'lock_bits'
p928
S'0x0F'
p929
sS'file'
p930
S'ATmegaBOOT.hex'
p931
sS'path'
p932
S'atmega8'
p933
sS'unlock_bits'
p934
S'0x3F'
p935
ssS'upload'
p936
(dp937
S'protocol'
p938
S'arduino'
p939
sS'maximum_size'
p940
S'7168'
p941
sS'speed'
p942
S'19200'
p943
ssS'name'
p944
S'Arduino NG or older w/ ATmega8'
p945
sS'build'
p946
(dp947
S'core'
p948
S'arduino'
p949
sS'mcu'
p950
S'atmega8'
p951
sS'f_cpu'
p952
S'16000000L'
p953
sS'variant'
p954
S'standard'
p955
ssaatp956
Rp957
(dp958
S'default'
p959
S'uno'
p960
sbtp961
a(S'used_libs'
p962
(lp963
S'lib/TSL2561'
p964
aS'lib/NewPing'
p965
aS'/usr/share/arduino/libraries/Wire'
p966
aS'/usr/share/arduino/hardware/arduino/cores/arduino'
p967
atp968
a(S'make'
p969
S'/usr/bin/make'
p970
tp971
a(S'build_dir'
p972
S'.build/uno'
p973
tp974
a(S'cc'
p975
S'/usr/bin/avr-gcc'
p976
tp977
a(S'cflags'
p978
g2
(g3
g4
(lp979
tp980
Rp981
tp982
a(S'cxxflags'
p983
g2
(g3
g4
(lp984
S'-fno-exceptions'
p985
atp986
Rp987
tp988
a(S'arduino_variants_dir'
p989
S'/usr/share/arduino/hardware/arduino/variants'
p990
tp991
a(S'serial'
p992
S'/usr/bin/picocom'
p993
tp994
a(S'stty'
p995
S'/bin/stty'
p996
tp997
a(S'version.txt'
p998
S'/usr/share/arduino/lib/version.txt'
p999
tp1000
a(S'arduino_core_dir'
p1001
g967
tp1002
a(S'boards.txt'
p1003
(lp1004
S'/usr/share/arduino/hardware/arduino/boards.txt'
p1005
atp1006
a(S'avrdude.conf'
p1007
S'/usr/share/arduino/hardware/tools/avrdude.conf'
p1008
tp1009
a(g44
g2
(g3
g4
(lp1010
S'.build/uno/src/dependencies.d'
p1011
aS'.build/uno/NewPing/dependencies.d'
p1012
aS'.build/uno/Wire/dependencies.d'
p1013
aS'.build/uno/TSL2561/dependencies.d'
p1014
aS'.build/uno/arduino/dependencies.d'
p1015
atp1016
Rp1017
tp1018
a.